Archive member included to satisfy reference by file (symbol)

/home/ksg/bin/gcc-arm/gcc-arm-none-eabi-6-2017-q2-update/bin/../lib/gcc/arm-none-eabi/6.3.1/../../../../arm-none-eabi/lib/thumb/v7e-m/libg.a(lib_a-memcpy.o)
                              /tmp/ccxHBcHG.ltrans7.ltrans.o (memcpy)
/home/ksg/bin/gcc-arm/gcc-arm-none-eabi-6-2017-q2-update/bin/../lib/gcc/arm-none-eabi/6.3.1/../../../../arm-none-eabi/lib/thumb/v7e-m/libg.a(lib_a-memset.o)
                              /tmp/ccxHBcHG.ltrans0.ltrans.o (memset)
/home/ksg/bin/gcc-arm/gcc-arm-none-eabi-6-2017-q2-update/bin/../lib/gcc/arm-none-eabi/6.3.1/../../../../arm-none-eabi/lib/thumb/v7e-m/libg.a(lib_a-strncmp.o)
                              /tmp/ccxHBcHG.ltrans2.ltrans.o (strncmp)
/home/ksg/bin/gcc-arm/gcc-arm-none-eabi-6-2017-q2-update/bin/../lib/gcc/arm-none-eabi/6.3.1/../../../../arm-none-eabi/lib/thumb/v7e-m/libg.a(lib_a-strncpy.o)
                              /tmp/ccxHBcHG.ltrans2.ltrans.o (strncpy)

Discarded input sections

 .data          0x0000000000000000        0x0 build/obj/crt0_v7m.o
 .bss           0x0000000000000000        0x0 build/obj/crt0_v7m.o
 .data          0x0000000000000000        0x0 build/obj/vectors.o
 .bss           0x0000000000000000        0x0 build/obj/vectors.o
 .data          0x0000000000000000        0x0 build/obj/chcoreasm_v7m.o
 .bss           0x0000000000000000        0x0 build/obj/chcoreasm_v7m.o
 .text          0x0000000000000000        0x0 build/obj/crt1.o (symbol from plugin)
 .text          0x0000000000000000        0x0 /tmp/ccxHBcHG.ltrans0.ltrans.o
 .data          0x0000000000000000        0x0 /tmp/ccxHBcHG.ltrans0.ltrans.o
 .bss           0x0000000000000000        0x0 /tmp/ccxHBcHG.ltrans0.ltrans.o
 .text          0x0000000000000000        0x0 /tmp/ccxHBcHG.ltrans1.ltrans.o
 .data          0x0000000000000000        0x0 /tmp/ccxHBcHG.ltrans1.ltrans.o
 .bss           0x0000000000000000        0x0 /tmp/ccxHBcHG.ltrans1.ltrans.o
 .text          0x0000000000000000        0x0 /tmp/ccxHBcHG.ltrans2.ltrans.o
 .data          0x0000000000000000        0x0 /tmp/ccxHBcHG.ltrans2.ltrans.o
 .bss           0x0000000000000000        0x0 /tmp/ccxHBcHG.ltrans2.ltrans.o
 .text          0x0000000000000000        0x0 /tmp/ccxHBcHG.ltrans3.ltrans.o
 .data          0x0000000000000000        0x0 /tmp/ccxHBcHG.ltrans3.ltrans.o
 .bss           0x0000000000000000        0x0 /tmp/ccxHBcHG.ltrans3.ltrans.o
 .text          0x0000000000000000        0x0 /tmp/ccxHBcHG.ltrans4.ltrans.o
 .data          0x0000000000000000        0x0 /tmp/ccxHBcHG.ltrans4.ltrans.o
 .bss           0x0000000000000000        0x0 /tmp/ccxHBcHG.ltrans4.ltrans.o
 .text          0x0000000000000000        0x0 /tmp/ccxHBcHG.ltrans5.ltrans.o
 .data          0x0000000000000000        0x0 /tmp/ccxHBcHG.ltrans5.ltrans.o
 .bss           0x0000000000000000        0x0 /tmp/ccxHBcHG.ltrans5.ltrans.o
 .text          0x0000000000000000        0x0 /tmp/ccxHBcHG.ltrans6.ltrans.o
 .data          0x0000000000000000        0x0 /tmp/ccxHBcHG.ltrans6.ltrans.o
 .bss           0x0000000000000000        0x0 /tmp/ccxHBcHG.ltrans6.ltrans.o
 .text          0x0000000000000000        0x0 /tmp/ccxHBcHG.ltrans7.ltrans.o
 .data          0x0000000000000000        0x0 /tmp/ccxHBcHG.ltrans7.ltrans.o
 .bss           0x0000000000000000        0x0 /tmp/ccxHBcHG.ltrans7.ltrans.o
 .text          0x0000000000000000        0x0 /tmp/ccxHBcHG.ltrans8.ltrans.o
 .data          0x0000000000000000        0x0 /tmp/ccxHBcHG.ltrans8.ltrans.o
 .bss           0x0000000000000000        0x0 /tmp/ccxHBcHG.ltrans8.ltrans.o
 .text          0x0000000000000000        0x0 /tmp/ccxHBcHG.ltrans9.ltrans.o
 .data          0x0000000000000000        0x0 /tmp/ccxHBcHG.ltrans9.ltrans.o
 .bss           0x0000000000000000        0x0 /tmp/ccxHBcHG.ltrans9.ltrans.o
 .text          0x0000000000000000        0x0 build/obj/hal.o (symbol from plugin)
 .text          0x0000000000000000        0x0 build/obj/hal_st.o (symbol from plugin)
 .text          0x0000000000000000        0x0 build/obj/hal_buffers.o (symbol from plugin)
 .text          0x0000000000000000        0x0 build/obj/hal_queues.o (symbol from plugin)
 .text          0x0000000000000000        0x0 build/obj/hal_mmcsd.o (symbol from plugin)
 .text          0x0000000000000000        0x0 build/obj/hal_pal.o (symbol from plugin)
 .text          0x0000000000000000        0x0 build/obj/hal_serial.o (symbol from plugin)
 .text          0x0000000000000000        0x0 build/obj/nvic.o (symbol from plugin)
 .text          0x0000000000000000        0x0 build/obj/stm32_isr.o (symbol from plugin)
 .text          0x0000000000000000        0x0 build/obj/hal_lld.o (symbol from plugin)
 .text          0x0000000000000000        0x0 build/obj/stm32_dma.o (symbol from plugin)
 .text          0x0000000000000000        0x0 build/obj/hal_pal_lld.o (symbol from plugin)
 .text          0x0000000000000000        0x0 build/obj/hal_st_lld.o (symbol from plugin)
 .text          0x0000000000000000        0x0 build/obj/hal_serial_lld.o (symbol from plugin)
 .text          0x0000000000000000        0x0 build/obj/board.o (symbol from plugin)
 .text          0x0000000000000000        0x0 build/obj/osal.o (symbol from plugin)
 .text          0x0000000000000000        0x0 build/obj/chsys.o (symbol from plugin)
 .text          0x0000000000000000        0x0 build/obj/chdebug.o (symbol from plugin)
 .text          0x0000000000000000        0x0 build/obj/chtrace.o (symbol from plugin)
 .text          0x0000000000000000        0x0 build/obj/chvt.o (symbol from plugin)
 .text          0x0000000000000000        0x0 build/obj/chschd.o (symbol from plugin)
 .text          0x0000000000000000        0x0 build/obj/chthreads.o (symbol from plugin)
 .text          0x0000000000000000        0x0 build/obj/chtm.o (symbol from plugin)
 .text          0x0000000000000000        0x0 build/obj/chregistry.o (symbol from plugin)
 .text          0x0000000000000000        0x0 build/obj/chsem.o (symbol from plugin)
 .text          0x0000000000000000        0x0 build/obj/chmtx.o (symbol from plugin)
 .text          0x0000000000000000        0x0 build/obj/chcond.o (symbol from plugin)
 .text          0x0000000000000000        0x0 build/obj/chevents.o (symbol from plugin)
 .text          0x0000000000000000        0x0 build/obj/chmsg.o (symbol from plugin)
 .text          0x0000000000000000        0x0 build/obj/chdynamic.o (symbol from plugin)
 .text          0x0000000000000000        0x0 build/obj/chmboxes.o (symbol from plugin)
 .text          0x0000000000000000        0x0 build/obj/chmemcore.o (symbol from plugin)
 .text          0x0000000000000000        0x0 build/obj/chheap.o (symbol from plugin)
 .text          0x0000000000000000        0x0 build/obj/chmempools.o (symbol from plugin)
 .text          0x0000000000000000        0x0 build/obj/chfactory.o (symbol from plugin)
 .text          0x0000000000000000        0x0 build/obj/chcore.o (symbol from plugin)
 .text          0x0000000000000000        0x0 build/obj/chcore_v7m.o (symbol from plugin)
 .text          0x0000000000000000        0x0 build/obj/ch_test.o (symbol from plugin)
 .text          0x0000000000000000        0x0 build/obj/rt_test_root.o (symbol from plugin)
 .text          0x0000000000000000        0x0 build/obj/rt_test_sequence_001.o (symbol from plugin)
 .text          0x0000000000000000        0x0 build/obj/rt_test_sequence_002.o (symbol from plugin)
 .text          0x0000000000000000        0x0 build/obj/rt_test_sequence_003.o (symbol from plugin)
 .text          0x0000000000000000        0x0 build/obj/rt_test_sequence_004.o (symbol from plugin)
 .text          0x0000000000000000        0x0 build/obj/rt_test_sequence_005.o (symbol from plugin)
 .text          0x0000000000000000        0x0 build/obj/rt_test_sequence_006.o (symbol from plugin)
 .text          0x0000000000000000        0x0 build/obj/rt_test_sequence_007.o (symbol from plugin)
 .text          0x0000000000000000        0x0 build/obj/rt_test_sequence_008.o (symbol from plugin)
 .text          0x0000000000000000        0x0 build/obj/rt_test_sequence_009.o (symbol from plugin)
 .text          0x0000000000000000        0x0 build/obj/rt_test_sequence_010.o (symbol from plugin)
 .text          0x0000000000000000        0x0 build/obj/oslib_test_root.o (symbol from plugin)
 .text          0x0000000000000000        0x0 build/obj/oslib_test_sequence_001.o (symbol from plugin)
 .text          0x0000000000000000        0x0 build/obj/oslib_test_sequence_002.o (symbol from plugin)
 .text          0x0000000000000000        0x0 build/obj/oslib_test_sequence_003.o (symbol from plugin)
 .text          0x0000000000000000        0x0 build/obj/oslib_test_sequence_004.o (symbol from plugin)
 .text          0x0000000000000000        0x0 build/obj/main.o (symbol from plugin)
 .data          0x0000000000000000        0x0 /home/ksg/bin/gcc-arm/gcc-arm-none-eabi-6-2017-q2-update/bin/../lib/gcc/arm-none-eabi/6.3.1/../../../../arm-none-eabi/lib/thumb/v7e-m/libg.a(lib_a-memcpy.o)
 .bss           0x0000000000000000        0x0 /home/ksg/bin/gcc-arm/gcc-arm-none-eabi-6-2017-q2-update/bin/../lib/gcc/arm-none-eabi/6.3.1/../../../../arm-none-eabi/lib/thumb/v7e-m/libg.a(lib_a-memcpy.o)
 .text          0x0000000000000000        0x0 /home/ksg/bin/gcc-arm/gcc-arm-none-eabi-6-2017-q2-update/bin/../lib/gcc/arm-none-eabi/6.3.1/../../../../arm-none-eabi/lib/thumb/v7e-m/libg.a(lib_a-memset.o)
 .data          0x0000000000000000        0x0 /home/ksg/bin/gcc-arm/gcc-arm-none-eabi-6-2017-q2-update/bin/../lib/gcc/arm-none-eabi/6.3.1/../../../../arm-none-eabi/lib/thumb/v7e-m/libg.a(lib_a-memset.o)
 .bss           0x0000000000000000        0x0 /home/ksg/bin/gcc-arm/gcc-arm-none-eabi-6-2017-q2-update/bin/../lib/gcc/arm-none-eabi/6.3.1/../../../../arm-none-eabi/lib/thumb/v7e-m/libg.a(lib_a-memset.o)
 .text          0x0000000000000000        0x0 /home/ksg/bin/gcc-arm/gcc-arm-none-eabi-6-2017-q2-update/bin/../lib/gcc/arm-none-eabi/6.3.1/../../../../arm-none-eabi/lib/thumb/v7e-m/libg.a(lib_a-strncmp.o)
 .data          0x0000000000000000        0x0 /home/ksg/bin/gcc-arm/gcc-arm-none-eabi-6-2017-q2-update/bin/../lib/gcc/arm-none-eabi/6.3.1/../../../../arm-none-eabi/lib/thumb/v7e-m/libg.a(lib_a-strncmp.o)
 .bss           0x0000000000000000        0x0 /home/ksg/bin/gcc-arm/gcc-arm-none-eabi-6-2017-q2-update/bin/../lib/gcc/arm-none-eabi/6.3.1/../../../../arm-none-eabi/lib/thumb/v7e-m/libg.a(lib_a-strncmp.o)
 .text          0x0000000000000000        0x0 /home/ksg/bin/gcc-arm/gcc-arm-none-eabi-6-2017-q2-update/bin/../lib/gcc/arm-none-eabi/6.3.1/../../../../arm-none-eabi/lib/thumb/v7e-m/libg.a(lib_a-strncpy.o)
 .data          0x0000000000000000        0x0 /home/ksg/bin/gcc-arm/gcc-arm-none-eabi-6-2017-q2-update/bin/../lib/gcc/arm-none-eabi/6.3.1/../../../../arm-none-eabi/lib/thumb/v7e-m/libg.a(lib_a-strncpy.o)
 .bss           0x0000000000000000        0x0 /home/ksg/bin/gcc-arm/gcc-arm-none-eabi-6-2017-q2-update/bin/../lib/gcc/arm-none-eabi/6.3.1/../../../../arm-none-eabi/lib/thumb/v7e-m/libg.a(lib_a-strncpy.o)

Memory Configuration

Name             Origin             Length             Attributes
flash0           0x0000000008000000 0x0000000000200000
flash1           0x0000000000200000 0x0000000000200000
flash2           0x0000000000000000 0x0000000000000000
flash3           0x0000000000000000 0x0000000000000000
flash4           0x0000000000000000 0x0000000000000000
flash5           0x0000000000000000 0x0000000000000000
flash6           0x0000000000000000 0x0000000000000000
flash7           0x0000000000000000 0x0000000000000000
ram0             0x0000000020020000 0x0000000000060000
ram1             0x0000000020020000 0x000000000005c000
ram2             0x000000002007c000 0x0000000000004000
ram3             0x0000000020000000 0x0000000000020000
ram4             0x0000000000000000 0x0000000000004000
ram5             0x0000000040024000 0x0000000000001000
ram6             0x0000000000000000 0x0000000000000000
ram7             0x0000000000000000 0x0000000000000000
*default*        0x0000000000000000 0xffffffffffffffff

Linker script and memory map

LOAD build/obj/crt0_v7m.o
LOAD build/obj/vectors.o
LOAD build/obj/chcoreasm_v7m.o
LOAD build/obj/crt1.o
LOAD /tmp/ccxHBcHG.ltrans0.ltrans.o
LOAD /tmp/ccxHBcHG.ltrans1.ltrans.o
LOAD /tmp/ccxHBcHG.ltrans2.ltrans.o
LOAD /tmp/ccxHBcHG.ltrans3.ltrans.o
LOAD /tmp/ccxHBcHG.ltrans4.ltrans.o
LOAD /tmp/ccxHBcHG.ltrans5.ltrans.o
LOAD /tmp/ccxHBcHG.ltrans6.ltrans.o
LOAD /tmp/ccxHBcHG.ltrans7.ltrans.o
LOAD /tmp/ccxHBcHG.ltrans8.ltrans.o
LOAD /tmp/ccxHBcHG.ltrans9.ltrans.o
LOAD build/obj/hal.o
LOAD build/obj/hal_st.o
LOAD build/obj/hal_buffers.o
LOAD build/obj/hal_queues.o
LOAD build/obj/hal_mmcsd.o
LOAD build/obj/hal_pal.o
LOAD build/obj/hal_serial.o
LOAD build/obj/nvic.o
LOAD build/obj/stm32_isr.o
LOAD build/obj/hal_lld.o
LOAD build/obj/stm32_dma.o
LOAD build/obj/hal_pal_lld.o
LOAD build/obj/hal_st_lld.o
LOAD build/obj/hal_serial_lld.o
LOAD build/obj/board.o
LOAD build/obj/osal.o
LOAD build/obj/chsys.o
LOAD build/obj/chdebug.o
LOAD build/obj/chtrace.o
LOAD build/obj/chvt.o
LOAD build/obj/chschd.o
LOAD build/obj/chthreads.o
LOAD build/obj/chtm.o
LOAD build/obj/chregistry.o
LOAD build/obj/chsem.o
LOAD build/obj/chmtx.o
LOAD build/obj/chcond.o
LOAD build/obj/chevents.o
LOAD build/obj/chmsg.o
LOAD build/obj/chdynamic.o
LOAD build/obj/chmboxes.o
LOAD build/obj/chmemcore.o
LOAD build/obj/chheap.o
LOAD build/obj/chmempools.o
LOAD build/obj/chfactory.o
LOAD build/obj/chcore.o
LOAD build/obj/chcore_v7m.o
LOAD build/obj/ch_test.o
LOAD build/obj/rt_test_root.o
LOAD build/obj/rt_test_sequence_001.o
LOAD build/obj/rt_test_sequence_002.o
LOAD build/obj/rt_test_sequence_003.o
LOAD build/obj/rt_test_sequence_004.o
LOAD build/obj/rt_test_sequence_005.o
LOAD build/obj/rt_test_sequence_006.o
LOAD build/obj/rt_test_sequence_007.o
LOAD build/obj/rt_test_sequence_008.o
LOAD build/obj/rt_test_sequence_009.o
LOAD build/obj/rt_test_sequence_010.o
LOAD build/obj/oslib_test_root.o
LOAD build/obj/oslib_test_sequence_001.o
LOAD build/obj/oslib_test_sequence_002.o
LOAD build/obj/oslib_test_sequence_003.o
LOAD build/obj/oslib_test_sequence_004.o
LOAD build/obj/main.o

.mstack         0x0000000020000000      0x400
                0x0000000020000000                . = ALIGN (0x8)
                0x0000000020000000                __main_stack_base__ = .
                0x0000000020000400                . = (. + __main_stack_size__)
 *fill*         0x0000000020000000      0x400 
                0x0000000020000400                . = ALIGN (0x8)
                0x0000000020000400                __main_stack_end__ = .

.pstack         0x0000000020000400      0x400
                0x0000000020000400                __process_stack_base__ = .
                0x0000000020000400                __main_thread_stack_base__ = .
                0x0000000020000800                . = (. + __process_stack_size__)
 *fill*         0x0000000020000400      0x400 
                0x0000000020000800                . = ALIGN (0x8)
                0x0000000020000800                __process_stack_end__ = .
                0x0000000020000800                __main_thread_stack_end__ = .

.nocache        0x0000000020000800        0x0
                0x0000000020000800                __nocache_base__ = .
 *(.nocache)
 *(.nocache.*)
 *(.bss.__nocache_*)
                0x0000000020000800                . = ALIGN (0x4)
                0x0000000020000800                __nocache_end__ = .

.eth            0x0000000020000800        0x0
                0x0000000020000800                __eth_base__ = .
 *(.eth)
 *(.eth.*)
 *(.bss.__eth_*)
                0x0000000020000800                . = ALIGN (0x4)
                0x0000000020000800                __eth_end__ = .

.vectors        0x0000000000200000      0x200 load address 0x0000000008000000
 *(.vectors)
 .vectors       0x0000000000200000      0x200 build/obj/vectors.o
                0x0000000000200000                _vectors

.xtors          0x0000000000200200        0x0 load address 0x0000000008000200
                0x0000000000200200                __init_array_start = .
 *(SORT(.init_array.*))
 *(.init_array)
                0x0000000000200200                __init_array_end = .
                0x0000000000200200                __fini_array_start = .
 *(.fini_array)
 *(SORT(.fini_array.*))
                0x0000000000200200                __fini_array_end = .

.text           0x0000000000200200     0x7b6c load address 0x0000000008000200
 *(.text)
 .text          0x0000000000200200       0xd8 build/obj/crt0_v7m.o
                0x0000000000200200                _crt0_entry
 .text          0x00000000002002d8        0x8 build/obj/vectors.o
                0x00000000002002d8                Reset_Handler
                0x00000000002002da                VectorE8
                0x00000000002002da                VectorAC
                0x00000000002002da                DebugMon_Handler
                0x00000000002002da                Vector1A0
                0x00000000002002da                Vector11C
                0x00000000002002da                HardFault_Handler
                0x00000000002002da                Vector1B8
                0x00000000002002da                Vector1F0
                0x00000000002002da                Vector19C
                0x00000000002002da                Vector1EC
                0x00000000002002da                Vector8C
                0x00000000002002da                SysTick_Handler
                0x00000000002002da                VectorDC
                0x00000000002002da                PendSV_Handler
                0x00000000002002da                Vector168
                0x00000000002002da                NMI_Handler
                0x00000000002002da                Vector110
                0x00000000002002da                Vector120
                0x00000000002002da                Vector1D8
                0x00000000002002da                Vector1F4
                0x00000000002002da                VectorC8
                0x00000000002002da                Vector94
                0x00000000002002da                VectorA8
                0x00000000002002da                VectorB4
                0x00000000002002da                Vector1FC
                0x00000000002002da                Vector74
                0x00000000002002da                Vector160
                0x00000000002002da                Vector1B0
                0x00000000002002da                UsageFault_Handler
                0x00000000002002da                VectorEC
                0x00000000002002da                Vector40
                0x00000000002002da                VectorF8
                0x00000000002002da                Vector108
                0x00000000002002da                VectorBC
                0x00000000002002da                Vector190
                0x00000000002002da                Vector1E0
                0x00000000002002da                Vector150
                0x00000000002002da                Vector1F8
                0x00000000002002da                Vector124
                0x00000000002002da                Vector1C4
                0x00000000002002da                Vector1CC
                0x00000000002002da                Vector1E4
                0x00000000002002da                Vector148
                0x00000000002002da                Vector188
                0x00000000002002da                Vector198
                0x00000000002002da                Vector118
                0x00000000002002da                VectorCC
                0x00000000002002da                Vector54
                0x00000000002002da                Vector98
                0x00000000002002da                VectorD8
                0x00000000002002da                Vector138
                0x00000000002002da                Vector24
                0x00000000002002da                Vector1AC
                0x00000000002002da                Vector178
                0x00000000002002da                Vector84
                0x00000000002002da                Vector1A4
                0x00000000002002da                VectorD0
                0x00000000002002da                Vector1B4
                0x00000000002002da                Vector140
                0x00000000002002da                VectorE4
                0x00000000002002da                VectorC0
                0x00000000002002da                Vector158
                0x00000000002002da                Vector130
                0x00000000002002da                Vector1C0
                0x00000000002002da                Vector134
                0x00000000002002da                Vector1D0
                0x00000000002002da                VectorF0
                0x00000000002002da                Vector12C
                0x00000000002002da                Vector13C
                0x00000000002002da                Vector100
                0x00000000002002da                VectorF4
                0x00000000002002da                MemManage_Handler
                0x00000000002002da                Vector6C
                0x00000000002002da                VectorA0
                0x00000000002002da                VectorC4
                0x00000000002002da                Vector7C
                0x00000000002002da                Vector180
                0x00000000002002da                Vector90
                0x00000000002002da                Vector114
                0x00000000002002da                Vector164
                0x00000000002002da                Vector1C
                0x00000000002002da                Vector1BC
                0x00000000002002da                Vector1D4
                0x00000000002002da                Vector17C
                0x00000000002002da                Vector48
                0x00000000002002da                Vector1A8
                0x00000000002002da                Vector16C
                0x00000000002002da                Vector70
                0x00000000002002da                Vector4C
                0x00000000002002da                Vector144
                0x00000000002002da                Vector80
                0x00000000002002da                Vector15C
                0x00000000002002da                Vector78
                0x00000000002002da                Vector1E8
                0x00000000002002da                Vector170
                0x00000000002002da                Vector88
                0x00000000002002da                Vector104
                0x00000000002002da                Vector184
                0x00000000002002da                Vector10C
                0x00000000002002da                Vector14C
                0x00000000002002da                BusFault_Handler
                0x00000000002002da                Vector50
                0x00000000002002da                Vector1C8
                0x00000000002002da                Vector194
                0x00000000002002da                Vector1DC
                0x00000000002002da                Vector154
                0x00000000002002da                Vector44
                0x00000000002002da                Vector28
                0x00000000002002da                VectorB8
                0x00000000002002da                VectorFC
                0x00000000002002da                Vector34
                0x00000000002002da                Vector128
                0x00000000002002da                VectorA4
                0x00000000002002da                Vector20
                0x00000000002002da                Vector18C
                0x00000000002002da                Vector174
                0x00000000002002dc                _unhandled_exception
 .text          0x00000000002002e0       0x28 build/obj/chcoreasm_v7m.o
                0x00000000002002e0                _port_switch
                0x00000000002002f0                _port_thread_start
                0x0000000000200300                _port_switch_from_isr
                0x0000000000200304                _port_exit_from_isr
 .text          0x0000000000200308      0x134 /home/ksg/bin/gcc-arm/gcc-arm-none-eabi-6-2017-q2-update/bin/../lib/gcc/arm-none-eabi/6.3.1/../../../../arm-none-eabi/lib/thumb/v7e-m/libg.a(lib_a-memcpy.o)
                0x0000000000200308                memcpy
 *(.text.*)
 *fill*         0x000000000020043c        0x4 
 .text.chThdDequeueNextI.constprop.75
                0x0000000000200440       0x20 /tmp/ccxHBcHG.ltrans0.ltrans.o
                0x0000000000200440                chThdDequeueNextI.constprop.75
 .text.chTMStartMeasurementX.constprop.62
                0x0000000000200460        0xc /tmp/ccxHBcHG.ltrans0.ltrans.o
                0x0000000000200460                chTMStartMeasurementX.constprop.62
 *fill*         0x000000000020046c        0x4 
 .text.chThdCreateStatic.constprop.61
                0x0000000000200470       0x98 /tmp/ccxHBcHG.ltrans0.ltrans.o
                0x0000000000200470                chThdCreateStatic.constprop.61
 *fill*         0x0000000000200508        0x8 
 .text.chSemWaitTimeout.constprop.58
                0x0000000000200510       0x50 /tmp/ccxHBcHG.ltrans0.ltrans.o
                0x0000000000200510                chSemWaitTimeout.constprop.58
 .text.chSemSignalWait.constprop.55
                0x0000000000200560       0x68 /tmp/ccxHBcHG.ltrans0.ltrans.o
                0x0000000000200560                chSemSignalWait.constprop.55
 *fill*         0x00000000002005c8        0x8 
 .text.chMtxTryLock.constprop.53
                0x00000000002005d0       0x34 /tmp/ccxHBcHG.ltrans0.ltrans.o
                0x00000000002005d0                chMtxTryLock.constprop.53
 *fill*         0x0000000000200604        0xc 
 .text.chCondSignal.constprop.51
                0x0000000000200610       0x28 /tmp/ccxHBcHG.ltrans0.ltrans.o
                0x0000000000200610                chCondSignal.constprop.51
 *fill*         0x0000000000200638        0x8 
 .text.chCondSignalI.constprop.50
                0x0000000000200640       0x24 /tmp/ccxHBcHG.ltrans0.ltrans.o
                0x0000000000200640                chCondSignalI.constprop.50
 *fill*         0x0000000000200664        0xc 
 .text.chEvtGetAndClearEvents.constprop.43
                0x0000000000200670       0x1c /tmp/ccxHBcHG.ltrans0.ltrans.o
                0x0000000000200670                chEvtGetAndClearEvents.constprop.43
 *fill*         0x000000000020068c        0x4 
 .text.chEvtWaitOne.constprop.39
                0x0000000000200690       0x34 /tmp/ccxHBcHG.ltrans0.ltrans.o
                0x0000000000200690                chEvtWaitOne.constprop.39
 *fill*         0x00000000002006c4        0xc 
 .text.chEvtWaitAny.constprop.38
                0x00000000002006d0       0x2c /tmp/ccxHBcHG.ltrans0.ltrans.o
                0x00000000002006d0                chEvtWaitAny.constprop.38
 *fill*         0x00000000002006fc        0x4 
 .text.chEvtWaitAll.constprop.37
                0x0000000000200700       0x38 /tmp/ccxHBcHG.ltrans0.ltrans.o
                0x0000000000200700                chEvtWaitAll.constprop.37
 *fill*         0x0000000000200738        0x8 
 .text.chHeapAllocAligned.constprop.33
                0x0000000000200740      0x10c /tmp/ccxHBcHG.ltrans0.ltrans.o
                0x0000000000200740                chHeapAllocAligned.constprop.33
 *fill*         0x000000000020084c        0x4 
 .text.chThdCreateFromHeap.constprop.32
                0x0000000000200850       0x58 /tmp/ccxHBcHG.ltrans0.ltrans.o
                0x0000000000200850                chThdCreateFromHeap.constprop.32
 *fill*         0x00000000002008a8        0x8 
 .text.chThdCreateFromMemoryPool.constprop.31
                0x00000000002008b0       0x5c /tmp/ccxHBcHG.ltrans0.ltrans.o
                0x00000000002008b0                chThdCreateFromMemoryPool.constprop.31
 *fill*         0x000000000020090c        0x4 
 .text.chMBReset.constprop.29
                0x0000000000200910       0x40 /tmp/ccxHBcHG.ltrans0.ltrans.o
                0x0000000000200910                chMBReset.constprop.29
 .text.chMBPostTimeout.constprop.27
                0x0000000000200950       0x78 /tmp/ccxHBcHG.ltrans0.ltrans.o
                0x0000000000200950                chMBPostTimeout.constprop.27
 *fill*         0x00000000002009c8        0x8 
 .text.chMBPostI.constprop.26
                0x00000000002009d0       0x48 /tmp/ccxHBcHG.ltrans0.ltrans.o
                0x00000000002009d0                chMBPostI.constprop.26
 *fill*         0x0000000000200a18        0x8 
 .text.chMBPostAheadTimeout.constprop.24
                0x0000000000200a20       0x78 /tmp/ccxHBcHG.ltrans0.ltrans.o
                0x0000000000200a20                chMBPostAheadTimeout.constprop.24
 *fill*         0x0000000000200a98        0x8 
 .text.chMBPostAheadI.constprop.23
                0x0000000000200aa0       0x48 /tmp/ccxHBcHG.ltrans0.ltrans.o
                0x0000000000200aa0                chMBPostAheadI.constprop.23
 *fill*         0x0000000000200ae8        0x8 
 .text.chMBFetchTimeout.constprop.21
                0x0000000000200af0       0x68 /tmp/ccxHBcHG.ltrans0.ltrans.o
                0x0000000000200af0                chMBFetchTimeout.constprop.21
 *fill*         0x0000000000200b58        0x8 
 .text.chMBFetchI.constprop.20
                0x0000000000200b60       0x44 /tmp/ccxHBcHG.ltrans0.ltrans.o
                0x0000000000200b60                chMBFetchI.constprop.20
 *fill*         0x0000000000200ba4        0xc 
 .text.chGuardedPoolAllocTimeout.constprop.15
                0x0000000000200bb0       0x6c /tmp/ccxHBcHG.ltrans0.ltrans.o
                0x0000000000200bb0                chGuardedPoolAllocTimeout.constprop.15
 *fill*         0x0000000000200c1c        0x4 
 .text.chFactoryRegisterObject.constprop.12
                0x0000000000200c20       0x30 /tmp/ccxHBcHG.ltrans0.ltrans.o
                0x0000000000200c20                chFactoryRegisterObject.constprop.12
 .text.chFactoryFindObject.constprop.11
                0x0000000000200c50       0x28 /tmp/ccxHBcHG.ltrans0.ltrans.o
                0x0000000000200c50                chFactoryFindObject.constprop.11
 *fill*         0x0000000000200c78        0x8 
 .text.chFactoryCreateBuffer.constprop.10
                0x0000000000200c80       0x38 /tmp/ccxHBcHG.ltrans0.ltrans.o
                0x0000000000200c80                chFactoryCreateBuffer.constprop.10
 *fill*         0x0000000000200cb8        0x8 
 .text.chFactoryFindBuffer.constprop.9
                0x0000000000200cc0       0x28 /tmp/ccxHBcHG.ltrans0.ltrans.o
                0x0000000000200cc0                chFactoryFindBuffer.constprop.9
 *fill*         0x0000000000200ce8        0x8 
 .text.chFactoryCreateSemaphore.constprop.8
                0x0000000000200cf0       0x38 /tmp/ccxHBcHG.ltrans0.ltrans.o
                0x0000000000200cf0                chFactoryCreateSemaphore.constprop.8
 *fill*         0x0000000000200d28        0x8 
 .text.chFactoryFindSemaphore.constprop.7
                0x0000000000200d30       0x28 /tmp/ccxHBcHG.ltrans0.ltrans.o
                0x0000000000200d30                chFactoryFindSemaphore.constprop.7
 *fill*         0x0000000000200d58        0x8 
 .text.chFactoryCreateMailbox.constprop.6
                0x0000000000200d60       0x54 /tmp/ccxHBcHG.ltrans0.ltrans.o
                0x0000000000200d60                chFactoryCreateMailbox.constprop.6
 *fill*         0x0000000000200db4        0xc 
 .text.chFactoryFindMailbox.constprop.5
                0x0000000000200dc0       0x28 /tmp/ccxHBcHG.ltrans0.ltrans.o
                0x0000000000200dc0                chFactoryFindMailbox.constprop.5
 *fill*         0x0000000000200de8        0x8 
 .text.chFactoryCreateObjectsFIFO.constprop.4
                0x0000000000200df0       0xa4 /tmp/ccxHBcHG.ltrans0.ltrans.o
                0x0000000000200df0                chFactoryCreateObjectsFIFO.constprop.4
 *fill*         0x0000000000200e94        0xc 
 .text.chFactoryFindObjectsFIFO.constprop.3
                0x0000000000200ea0       0x28 /tmp/ccxHBcHG.ltrans0.ltrans.o
                0x0000000000200ea0                chFactoryFindObjectsFIFO.constprop.3
 *fill*         0x0000000000200ec8        0x8 
 .text._test_assert_time_window.constprop.2
                0x0000000000200ed0       0x3c /tmp/ccxHBcHG.ltrans0.ltrans.o
                0x0000000000200ed0                _test_assert_time_window.constprop.2
 *fill*         0x0000000000200f0c        0x4 
 .text.test_execute.constprop.1
                0x0000000000200f10      0x348 /tmp/ccxHBcHG.ltrans0.ltrans.o
                0x0000000000200f10                test_execute.constprop.1
 *fill*         0x0000000000201258        0x8 
 .text.rt_test_009_001_setup.lto_priv.151
                0x0000000000201260       0x38 /tmp/ccxHBcHG.ltrans1.ltrans.o
                0x0000000000201260                rt_test_009_001_setup.lto_priv.151
 *fill*         0x0000000000201298        0x8 
 .text.rt_test_006_009_setup.lto_priv.135
                0x00000000002012a0       0x28 /tmp/ccxHBcHG.ltrans1.ltrans.o
                0x00000000002012a0                rt_test_006_009_setup.lto_priv.135
 *fill*         0x00000000002012c8        0x8 
 .text.rt_test_006_008_setup.lto_priv.133
                0x00000000002012d0       0x1c /tmp/ccxHBcHG.ltrans1.ltrans.o
                0x00000000002012d0                rt_test_006_008_setup.lto_priv.133
 *fill*         0x00000000002012ec        0x4 
 .text.rt_test_008_002_execute.lto_priv.140
                0x00000000002012f0       0x54 /tmp/ccxHBcHG.ltrans1.ltrans.o
                0x00000000002012f0                rt_test_008_002_execute.lto_priv.140
 *fill*         0x0000000000201344        0xc 
 .text.rt_test_009_001_execute.lto_priv.152
                0x0000000000201350      0x154 /tmp/ccxHBcHG.ltrans1.ltrans.o
                0x0000000000201350                rt_test_009_001_execute.lto_priv.152
 *fill*         0x00000000002014a4        0xc 
 .text.dyn_thread1
                0x00000000002014b0        0x4 /tmp/ccxHBcHG.ltrans1.ltrans.o
                0x00000000002014b0                dyn_thread1.lto_priv.79
 *fill*         0x00000000002014b4        0xc 
 .text.rt_test_008_001_execute.lto_priv.138
                0x00000000002014c0       0xf4 /tmp/ccxHBcHG.ltrans1.ltrans.o
                0x00000000002014c0                rt_test_008_001_execute.lto_priv.138
 *fill*         0x00000000002015b4        0xc 
 .text.rt_test_008_007_setup.lto_priv.149
                0x00000000002015c0       0x18 /tmp/ccxHBcHG.ltrans1.ltrans.o
                0x00000000002015c0                rt_test_008_007_setup.lto_priv.149
 *fill*         0x00000000002015d8        0x8 
 .text.rt_test_008_006_setup.lto_priv.147
                0x00000000002015e0        0x4 /tmp/ccxHBcHG.ltrans1.ltrans.o
                0x00000000002015e0                rt_test_008_006_setup.lto_priv.147
 *fill*         0x00000000002015e4        0xc 
 .text.rt_test_008_005_setup
                0x00000000002015f0        0x4 /tmp/ccxHBcHG.ltrans1.ltrans.o
                0x00000000002015f0                rt_test_008_005_setup.lto_priv.145
 *fill*         0x00000000002015f4        0xc 
 .text.rt_test_008_004_setup
                0x0000000000201600        0x4 /tmp/ccxHBcHG.ltrans1.ltrans.o
                0x0000000000201600                rt_test_008_004_setup.lto_priv.143
 *fill*         0x0000000000201604        0xc 
 .text.rt_test_008_003_setup
                0x0000000000201610        0x4 /tmp/ccxHBcHG.ltrans1.ltrans.o
                0x0000000000201610                rt_test_008_003_setup.lto_priv.141
 *fill*         0x0000000000201614        0xc 
 .text.rt_test_008_002_setup
                0x0000000000201620        0x4 /tmp/ccxHBcHG.ltrans1.ltrans.o
                0x0000000000201620                rt_test_008_002_setup.lto_priv.139
 *fill*         0x0000000000201624        0xc 
 .text.rt_test_008_007_execute.lto_priv.150
                0x0000000000201630      0x120 /tmp/ccxHBcHG.ltrans1.ltrans.o
                0x0000000000201630                rt_test_008_007_execute.lto_priv.150
 .text.rt_test_008_006_execute.lto_priv.148
                0x0000000000201750      0x16c /tmp/ccxHBcHG.ltrans1.ltrans.o
                0x0000000000201750                rt_test_008_006_execute.lto_priv.148
 *fill*         0x00000000002018bc        0x4 
 .text.rt_test_008_005_execute.lto_priv.146
                0x00000000002018c0       0xd0 /tmp/ccxHBcHG.ltrans1.ltrans.o
                0x00000000002018c0                rt_test_008_005_execute.lto_priv.146
 .text.rt_test_008_004_execute.lto_priv.144
                0x0000000000201990       0xc8 /tmp/ccxHBcHG.ltrans1.ltrans.o
                0x0000000000201990                rt_test_008_004_execute.lto_priv.144
 *fill*         0x0000000000201a58        0x8 
 .text.rt_test_008_003_execute.lto_priv.142
                0x0000000000201a60       0xf8 /tmp/ccxHBcHG.ltrans1.ltrans.o
                0x0000000000201a60                rt_test_008_003_execute.lto_priv.142
 *fill*         0x0000000000201b58        0x8 
 .text.evt_thread7
                0x0000000000201b60       0x40 /tmp/ccxHBcHG.ltrans1.ltrans.o
 .text.evt_thread3
                0x0000000000201ba0       0x28 /tmp/ccxHBcHG.ltrans1.ltrans.o
 *fill*         0x0000000000201bc8        0x8 
 .text.h3       0x0000000000201bd0        0x8 /tmp/ccxHBcHG.ltrans1.ltrans.o
 *fill*         0x0000000000201bd8        0x8 
 .text.h2       0x0000000000201be0        0x8 /tmp/ccxHBcHG.ltrans1.ltrans.o
 *fill*         0x0000000000201be8        0x8 
 .text.h1       0x0000000000201bf0        0x8 /tmp/ccxHBcHG.ltrans1.ltrans.o
 *fill*         0x0000000000201bf8        0x8 
 .text.msg_thread1
                0x0000000000201c00       0x28 /tmp/ccxHBcHG.ltrans1.ltrans.o
 *fill*         0x0000000000201c28        0x8 
 .text.rt_test_007_001_execute.lto_priv.137
                0x0000000000201c30       0x70 /tmp/ccxHBcHG.ltrans1.ltrans.o
                0x0000000000201c30                rt_test_007_001_execute.lto_priv.137
 .text.rt_test_006_009_execute.lto_priv.136
                0x0000000000201ca0       0xa8 /tmp/ccxHBcHG.ltrans1.ltrans.o
                0x0000000000201ca0                rt_test_006_009_execute.lto_priv.136
 *fill*         0x0000000000201d48        0x8 
 .text.rt_test_006_008_execute.lto_priv.134
                0x0000000000201d50       0xe0 /tmp/ccxHBcHG.ltrans1.ltrans.o
                0x0000000000201d50                rt_test_006_008_execute.lto_priv.134
 .text.rt_test_006_007_execute.lto_priv.132
                0x0000000000201e30       0xd8 /tmp/ccxHBcHG.ltrans1.ltrans.o
                0x0000000000201e30                rt_test_006_007_execute.lto_priv.132
 *fill*         0x0000000000201f08        0x8 
 .text.test_printn.part.0
                0x0000000000201f10       0x10 /tmp/ccxHBcHG.ltrans2.ltrans.o
 .text.chCoreAllocAlignedI.lto_priv.84
                0x0000000000201f20       0x30 /tmp/ccxHBcHG.ltrans2.ltrans.o
                0x0000000000201f20                chCoreAllocAlignedI.lto_priv.84
 .text.dyn_release_object_heap.part.3
                0x0000000000201f50       0x20 /tmp/ccxHBcHG.ltrans2.ltrans.o
 .text.test_printn
                0x0000000000201f70       0x58 /tmp/ccxHBcHG.ltrans2.ltrans.o
                0x0000000000201f70                test_printn
 *fill*         0x0000000000201fc8        0x8 
 .text.test_wait_tick
                0x0000000000201fd0       0x1c /tmp/ccxHBcHG.ltrans2.ltrans.o
                0x0000000000201fd0                test_wait_tick
 *fill*         0x0000000000201fec        0x4 
 .text.test_wait_threads
                0x0000000000201ff0       0x24 /tmp/ccxHBcHG.ltrans2.ltrans.o
                0x0000000000201ff0                test_wait_threads
 *fill*         0x0000000000202014        0xc 
 .text.test_terminate_threads
                0x0000000000202020       0x34 /tmp/ccxHBcHG.ltrans2.ltrans.o
                0x0000000000202020                test_terminate_threads
 *fill*         0x0000000000202054        0xc 
 .text.test_emit_token
                0x0000000000202060       0x28 /tmp/ccxHBcHG.ltrans2.ltrans.o
                0x0000000000202060                test_emit_token
 *fill*         0x0000000000202088        0x8 
 .text.test_println
                0x0000000000202090       0x38 /tmp/ccxHBcHG.ltrans2.ltrans.o
                0x0000000000202090                test_println
 *fill*         0x00000000002020c8        0x8 
 .text.test_print
                0x00000000002020d0       0x24 /tmp/ccxHBcHG.ltrans2.ltrans.o
                0x00000000002020d0                test_print
 *fill*         0x00000000002020f4        0xc 
 .text.rt_test_001_003_execute.lto_priv.99
                0x0000000000202100      0x3c8 /tmp/ccxHBcHG.ltrans2.ltrans.o
                0x0000000000202100                rt_test_001_003_execute.lto_priv.99
 *fill*         0x00000000002024c8        0x8 
 .text.rt_test_001_002_execute.lto_priv.98
                0x00000000002024d0       0x88 /tmp/ccxHBcHG.ltrans2.ltrans.o
                0x00000000002024d0                rt_test_001_002_execute.lto_priv.98
 *fill*         0x0000000000202558        0x8 
 .text.rt_test_001_001_execute.lto_priv.97
                0x0000000000202560       0xa8 /tmp/ccxHBcHG.ltrans2.ltrans.o
                0x0000000000202560                rt_test_001_001_execute.lto_priv.97
 *fill*         0x0000000000202608        0x8 
 .text._test_assert_sequence
                0x0000000000202610       0x50 /tmp/ccxHBcHG.ltrans2.ltrans.o
                0x0000000000202610                _test_assert_sequence
 .text._test_assert
                0x0000000000202660       0x28 /tmp/ccxHBcHG.ltrans2.ltrans.o
                0x0000000000202660                _test_assert
 *fill*         0x0000000000202688        0x8 
 .text.print_line.lto_priv.83
                0x0000000000202690       0x2c /tmp/ccxHBcHG.ltrans2.ltrans.o
                0x0000000000202690                print_line.lto_priv.83
 *fill*         0x00000000002026bc        0x4 
 .text._port_irq_epilogue
                0x00000000002026c0       0x54 /tmp/ccxHBcHG.ltrans2.ltrans.o
                0x00000000002026c0                _port_irq_epilogue
 *fill*         0x0000000000202714        0xc 
 .text.SVC_Handler
                0x0000000000202720       0x14 /tmp/ccxHBcHG.ltrans2.ltrans.o
                0x0000000000202720                SVC_Handler
 *fill*         0x0000000000202734        0xc 
 .text.chFactoryReleaseObjectsFIFO
                0x0000000000202740       0x2c /tmp/ccxHBcHG.ltrans2.ltrans.o
                0x0000000000202740                chFactoryReleaseObjectsFIFO
 *fill*         0x000000000020276c        0x4 
 .text.chFactoryReleaseMailbox
                0x0000000000202770       0x2c /tmp/ccxHBcHG.ltrans2.ltrans.o
                0x0000000000202770                chFactoryReleaseMailbox
 *fill*         0x000000000020279c        0x4 
 .text.chFactoryReleaseSemaphore
                0x00000000002027a0       0x64 /tmp/ccxHBcHG.ltrans2.ltrans.o
                0x00000000002027a0                chFactoryReleaseSemaphore
 *fill*         0x0000000000202804        0xc 
 .text.chFactoryReleaseBuffer
                0x0000000000202810       0x2c /tmp/ccxHBcHG.ltrans2.ltrans.o
                0x0000000000202810                chFactoryReleaseBuffer
 *fill*         0x000000000020283c        0x4 
 .text.chFactoryReleaseObject
                0x0000000000202840       0x64 /tmp/ccxHBcHG.ltrans2.ltrans.o
                0x0000000000202840                chFactoryReleaseObject
 *fill*         0x00000000002028a4        0xc 
 .text.dyn_find_object.lto_priv.81
                0x00000000002028b0       0x34 /tmp/ccxHBcHG.ltrans2.ltrans.o
                0x00000000002028b0                dyn_find_object.lto_priv.81
 *fill*         0x00000000002028e4        0xc 
 .text.dyn_create_object_heap.lto_priv.82
                0x00000000002028f0       0x50 /tmp/ccxHBcHG.ltrans2.ltrans.o
                0x00000000002028f0                dyn_create_object_heap.lto_priv.82
 .text.chPoolAlloc
                0x0000000000202940       0x30 /tmp/ccxHBcHG.ltrans2.ltrans.o
                0x0000000000202940                chPoolAlloc
 .text.dyn_create_object_pool.lto_priv.80
                0x0000000000202970       0x50 /tmp/ccxHBcHG.ltrans2.ltrans.o
                0x0000000000202970                dyn_create_object_pool.lto_priv.80
 .text.chHeapStatus
                0x00000000002029c0       0x60 /tmp/ccxHBcHG.ltrans2.ltrans.o
                0x00000000002029c0                chHeapStatus
 .text.oslib_test_003_001_setup.lto_priv.185
                0x0000000000202a20       0x38 /tmp/ccxHBcHG.ltrans3.ltrans.o
                0x0000000000202a20                oslib_test_003_001_setup.lto_priv.185
 *fill*         0x0000000000202a58        0x8 
 .text.oslib_test_002_003_setup.lto_priv.183
                0x0000000000202a60       0x1c /tmp/ccxHBcHG.ltrans3.ltrans.o
                0x0000000000202a60                oslib_test_002_003_setup.lto_priv.183
 *fill*         0x0000000000202a7c        0x4 
 .text.oslib_test_002_002_setup
                0x0000000000202a80        0x4 /tmp/ccxHBcHG.ltrans3.ltrans.o
                0x0000000000202a80                oslib_test_002_002_setup.lto_priv.181
 *fill*         0x0000000000202a84        0xc 
 .text.null_provider
                0x0000000000202a90        0x4 /tmp/ccxHBcHG.ltrans3.ltrans.o
 *fill*         0x0000000000202a94        0xc 
 .text.oslib_test_002_001_setup.lto_priv.179
                0x0000000000202aa0       0x14 /tmp/ccxHBcHG.ltrans3.ltrans.o
                0x0000000000202aa0                oslib_test_002_001_setup.lto_priv.179
 *fill*         0x0000000000202ab4        0xc 
 .text.oslib_test_001_003_setup.lto_priv.176
                0x0000000000202ac0       0x34 /tmp/ccxHBcHG.ltrans3.ltrans.o
                0x0000000000202ac0                oslib_test_001_003_setup.lto_priv.176
 *fill*         0x0000000000202af4        0xc 
 .text.oslib_test_004_001_execute.lto_priv.189
                0x0000000000202b00      0x174 /tmp/ccxHBcHG.ltrans3.ltrans.o
                0x0000000000202b00                oslib_test_004_001_execute.lto_priv.189
 *fill*         0x0000000000202c74        0xc 
 .text.oslib_test_004_001_teardown.lto_priv.188
                0x0000000000202c80       0x1c /tmp/ccxHBcHG.ltrans3.ltrans.o
                0x0000000000202c80                oslib_test_004_001_teardown.lto_priv.188
 *fill*         0x0000000000202c9c        0x4 
 .text.oslib_test_003_002_execute.lto_priv.187
                0x0000000000202ca0       0x64 /tmp/ccxHBcHG.ltrans3.ltrans.o
                0x0000000000202ca0                oslib_test_003_002_execute.lto_priv.187
 *fill*         0x0000000000202d04        0xc 
 .text.oslib_test_003_001_execute.lto_priv.186
                0x0000000000202d10      0x330 /tmp/ccxHBcHG.ltrans3.ltrans.o
                0x0000000000202d10                oslib_test_003_001_execute.lto_priv.186
 .text.oslib_test_002_003_execute.lto_priv.184
                0x0000000000203040       0x28 /tmp/ccxHBcHG.ltrans3.ltrans.o
                0x0000000000203040                oslib_test_002_003_execute.lto_priv.184
 *fill*         0x0000000000203068        0x8 
 .text.oslib_test_002_002_execute.lto_priv.182
                0x0000000000203070       0xfc /tmp/ccxHBcHG.ltrans3.ltrans.o
                0x0000000000203070                oslib_test_002_002_execute.lto_priv.182
 *fill*         0x000000000020316c        0x4 
 .text.oslib_test_002_001_execute.lto_priv.180
                0x0000000000203170      0x10c /tmp/ccxHBcHG.ltrans3.ltrans.o
                0x0000000000203170                oslib_test_002_001_execute.lto_priv.180
 *fill*         0x000000000020327c        0x4 
 .text.oslib_test_001_003_teardown.lto_priv.177
                0x0000000000203280        0x4 /tmp/ccxHBcHG.ltrans3.ltrans.o
                0x0000000000203280                oslib_test_001_003_teardown.lto_priv.177
 *fill*         0x0000000000203284        0xc 
 .text.oslib_test_001_003_execute.lto_priv.178
                0x0000000000203290      0x114 /tmp/ccxHBcHG.ltrans3.ltrans.o
                0x0000000000203290                oslib_test_001_003_execute.lto_priv.178
 *fill*         0x00000000002033a4        0xc 
 .text.oslib_test_001_002_execute.lto_priv.175
                0x00000000002033b0      0x2fc /tmp/ccxHBcHG.ltrans3.ltrans.o
                0x00000000002033b0                oslib_test_001_002_execute.lto_priv.175
 *fill*         0x00000000002036ac        0x4 
 .text.rt_test_010_011_setup.lto_priv.167
                0x00000000002036b0       0x10 /tmp/ccxHBcHG.ltrans4.ltrans.o
                0x00000000002036b0                rt_test_010_011_setup.lto_priv.167
 .text.rt_test_010_010_setup.lto_priv.165
                0x00000000002036c0       0x10 /tmp/ccxHBcHG.ltrans4.ltrans.o
                0x00000000002036c0                rt_test_010_010_setup.lto_priv.165
 .text.tmo      0x00000000002036d0        0x4 /tmp/ccxHBcHG.ltrans4.ltrans.o
 *fill*         0x00000000002036d4        0xc 
 .text.rt_test_010_007_setup.lto_priv.161
                0x00000000002036e0       0x10 /tmp/ccxHBcHG.ltrans4.ltrans.o
                0x00000000002036e0                rt_test_010_007_setup.lto_priv.161
 .text.rt_test_009_002_setup.lto_priv.153
                0x00000000002036f0       0x18 /tmp/ccxHBcHG.ltrans4.ltrans.o
                0x00000000002036f0                rt_test_009_002_setup.lto_priv.153
 *fill*         0x0000000000203708        0x8 
 .text.oslib_test_001_002_teardown
                0x0000000000203710        0x4 /tmp/ccxHBcHG.ltrans4.ltrans.o
                0x0000000000203710                oslib_test_001_002_teardown.lto_priv.174
 *fill*         0x0000000000203714        0xc 
 .text.oslib_test_001_001_teardown
                0x0000000000203720        0x4 /tmp/ccxHBcHG.ltrans4.ltrans.o
                0x0000000000203720                oslib_test_001_001_teardown.lto_priv.171
 *fill*         0x0000000000203724        0xc 
 .text.oslib_test_001_002_setup
                0x0000000000203730        0x4 /tmp/ccxHBcHG.ltrans4.ltrans.o
                0x0000000000203730                oslib_test_001_002_setup.lto_priv.173
 *fill*         0x0000000000203734        0xc 
 .text.oslib_test_001_001_setup
                0x0000000000203740        0x4 /tmp/ccxHBcHG.ltrans4.ltrans.o
                0x0000000000203740                oslib_test_001_001_setup.lto_priv.170
 *fill*         0x0000000000203744        0xc 
 .text.oslib_test_001_001_execute.lto_priv.172
                0x0000000000203750      0x318 /tmp/ccxHBcHG.ltrans4.ltrans.o
                0x0000000000203750                oslib_test_001_001_execute.lto_priv.172
 *fill*         0x0000000000203a68        0x8 
 .text.rt_test_010_012_execute.lto_priv.169
                0x0000000000203a70       0xfc /tmp/ccxHBcHG.ltrans4.ltrans.o
                0x0000000000203a70                rt_test_010_012_execute.lto_priv.169
 *fill*         0x0000000000203b6c        0x4 
 .text.rt_test_010_011_execute.lto_priv.168
                0x0000000000203b70       0x88 /tmp/ccxHBcHG.ltrans4.ltrans.o
                0x0000000000203b70                rt_test_010_011_execute.lto_priv.168
 *fill*         0x0000000000203bf8        0x8 
 .text.rt_test_010_010_execute.lto_priv.166
                0x0000000000203c00       0x88 /tmp/ccxHBcHG.ltrans4.ltrans.o
                0x0000000000203c00                rt_test_010_010_execute.lto_priv.166
 *fill*         0x0000000000203c88        0x8 
 .text.bmk_thread7
                0x0000000000203c90       0x2c /tmp/ccxHBcHG.ltrans4.ltrans.o
 *fill*         0x0000000000203cbc        0x4 
 .text.rt_test_010_009_execute.lto_priv.164
                0x0000000000203cc0       0x98 /tmp/ccxHBcHG.ltrans4.ltrans.o
                0x0000000000203cc0                rt_test_010_009_execute.lto_priv.164
 *fill*         0x0000000000203d58        0x8 
 .text.rt_test_010_008_execute.lto_priv.163
                0x0000000000203d60       0xe4 /tmp/ccxHBcHG.ltrans4.ltrans.o
                0x0000000000203d60                rt_test_010_008_execute.lto_priv.163
 *fill*         0x0000000000203e44        0xc 
 .text.bmk_thread8
                0x0000000000203e50       0x2c /tmp/ccxHBcHG.ltrans4.ltrans.o
 *fill*         0x0000000000203e7c        0x4 
 .text.rt_test_010_007_execute.lto_priv.162
                0x0000000000203e80      0x10c /tmp/ccxHBcHG.ltrans4.ltrans.o
                0x0000000000203e80                rt_test_010_007_execute.lto_priv.162
 *fill*         0x0000000000203f8c        0x4 
 .text.rt_test_010_006_execute.lto_priv.160
                0x0000000000203f90       0x7c /tmp/ccxHBcHG.ltrans4.ltrans.o
                0x0000000000203f90                rt_test_010_006_execute.lto_priv.160
 *fill*         0x000000000020400c        0x4 
 .text.rt_test_010_005_execute.lto_priv.159
                0x0000000000204010       0x7c /tmp/ccxHBcHG.ltrans4.ltrans.o
                0x0000000000204010                rt_test_010_005_execute.lto_priv.159
 *fill*         0x000000000020408c        0x4 
 .text.rt_test_010_004_execute.lto_priv.158
                0x0000000000204090       0xcc /tmp/ccxHBcHG.ltrans4.ltrans.o
                0x0000000000204090                rt_test_010_004_execute.lto_priv.158
 *fill*         0x000000000020415c        0x4 
 .text.bmk_thread4
                0x0000000000204160       0x24 /tmp/ccxHBcHG.ltrans4.ltrans.o
 *fill*         0x0000000000204184        0xc 
 .text.bmk_thread1
                0x0000000000204190       0x20 /tmp/ccxHBcHG.ltrans4.ltrans.o
 .text.msg_loop_test
                0x00000000002041b0       0x38 /tmp/ccxHBcHG.ltrans4.ltrans.o
 *fill*         0x00000000002041e8        0x8 
 .text.rt_test_010_003_execute.lto_priv.157
                0x00000000002041f0       0xd8 /tmp/ccxHBcHG.ltrans4.ltrans.o
                0x00000000002041f0                rt_test_010_003_execute.lto_priv.157
 *fill*         0x00000000002042c8        0x8 
 .text.rt_test_010_002_execute.lto_priv.156
                0x00000000002042d0       0x74 /tmp/ccxHBcHG.ltrans4.ltrans.o
                0x00000000002042d0                rt_test_010_002_execute.lto_priv.156
 *fill*         0x0000000000204344        0xc 
 .text.rt_test_010_001_execute.lto_priv.155
                0x0000000000204350       0x74 /tmp/ccxHBcHG.ltrans4.ltrans.o
                0x0000000000204350                rt_test_010_001_execute.lto_priv.155
 *fill*         0x00000000002043c4        0xc 
 .text.rt_test_009_002_execute.lto_priv.154
                0x00000000002043d0      0x158 /tmp/ccxHBcHG.ltrans4.ltrans.o
                0x00000000002043d0                rt_test_009_002_execute.lto_priv.154
 *fill*         0x0000000000204528        0x8 
 .text.bmk_thread3
                0x0000000000204530        0x4 /tmp/ccxHBcHG.ltrans4.ltrans.o
 *fill*         0x0000000000204534        0xc 
 .text.rt_test_006_005_setup.lto_priv.129
                0x0000000000204540       0x10 /tmp/ccxHBcHG.ltrans5.ltrans.o
                0x0000000000204540                rt_test_006_005_setup.lto_priv.129
 .text.rt_test_006_004_setup.lto_priv.126
                0x0000000000204550       0x1c /tmp/ccxHBcHG.ltrans5.ltrans.o
                0x0000000000204550                rt_test_006_004_setup.lto_priv.126
 *fill*         0x000000000020456c        0x4 
 .text.rt_test_006_001_setup
                0x0000000000204570        0x4 /tmp/ccxHBcHG.ltrans5.ltrans.o
                0x0000000000204570                rt_test_006_001_setup.lto_priv.124
 *fill*         0x0000000000204574        0xc 
 .text.rt_test_005_005_setup.lto_priv.119
                0x0000000000204580       0x10 /tmp/ccxHBcHG.ltrans5.ltrans.o
                0x0000000000204580                rt_test_005_005_setup.lto_priv.119
 .text.rt_test_005_004_setup
                0x0000000000204590        0x4 /tmp/ccxHBcHG.ltrans5.ltrans.o
                0x0000000000204590                rt_test_005_004_setup.lto_priv.117
 *fill*         0x0000000000204594        0xc 
 .text.rt_test_005_003_setup
                0x00000000002045a0        0x4 /tmp/ccxHBcHG.ltrans5.ltrans.o
                0x00000000002045a0                rt_test_005_003_setup.lto_priv.115
 *fill*         0x00000000002045a4        0xc 
 .text.rt_test_005_002_setup
                0x00000000002045b0        0x4 /tmp/ccxHBcHG.ltrans5.ltrans.o
                0x00000000002045b0                rt_test_005_002_setup.lto_priv.113
 *fill*         0x00000000002045b4        0xc 
 .text.rt_test_005_001_setup.lto_priv.110
                0x00000000002045c0       0x10 /tmp/ccxHBcHG.ltrans5.ltrans.o
                0x00000000002045c0                rt_test_005_001_setup.lto_priv.110
 .text.rt_test_006_007_setup
                0x00000000002045d0        0x4 /tmp/ccxHBcHG.ltrans5.ltrans.o
                0x00000000002045d0                rt_test_006_007_setup.lto_priv.131
 *fill*         0x00000000002045d4        0xc 
 .text.rt_test_006_005_execute.lto_priv.130
                0x00000000002045e0      0x160 /tmp/ccxHBcHG.ltrans5.ltrans.o
                0x00000000002045e0                rt_test_006_005_execute.lto_priv.130
 .text.thread4A
                0x0000000000204740       0x20 /tmp/ccxHBcHG.ltrans5.ltrans.o
 .text.rt_test_006_004_execute.lto_priv.128
                0x0000000000204760      0x138 /tmp/ccxHBcHG.ltrans5.ltrans.o
                0x0000000000204760                rt_test_006_004_execute.lto_priv.128
 *fill*         0x0000000000204898        0x8 
 .text.thread4B
                0x00000000002048a0       0x30 /tmp/ccxHBcHG.ltrans5.ltrans.o
 .text.rt_test_005_006_teardown.lto_priv.122
                0x00000000002048d0        0x4 /tmp/ccxHBcHG.ltrans5.ltrans.o
                0x00000000002048d0                rt_test_005_006_teardown.lto_priv.122
 *fill*         0x00000000002048d4        0xc 
 .text.rt_test_006_004_teardown
                0x00000000002048e0        0x4 /tmp/ccxHBcHG.ltrans5.ltrans.o
                0x00000000002048e0                rt_test_006_004_teardown.lto_priv.127
 *fill*         0x00000000002048e4        0xc 
 .text.rt_test_005_005_teardown
                0x00000000002048f0        0x4 /tmp/ccxHBcHG.ltrans5.ltrans.o
                0x00000000002048f0                rt_test_005_005_teardown.lto_priv.120
 *fill*         0x00000000002048f4        0xc 
 .text.rt_test_006_001_execute.lto_priv.125
                0x0000000000204900       0xdc /tmp/ccxHBcHG.ltrans5.ltrans.o
                0x0000000000204900                rt_test_006_001_execute.lto_priv.125
 *fill*         0x00000000002049dc        0x4 
 .text.rt_test_005_004_execute.lto_priv.118
                0x00000000002049e0       0xb8 /tmp/ccxHBcHG.ltrans5.ltrans.o
                0x00000000002049e0                rt_test_005_004_execute.lto_priv.118
 *fill*         0x0000000000204a98        0x8 
 .text.thread1.lto_priv.203
                0x0000000000204aa0       0x20 /tmp/ccxHBcHG.ltrans5.ltrans.o
 .text.thread9.lto_priv.197
                0x0000000000204ac0       0x20 /tmp/ccxHBcHG.ltrans5.ltrans.o
                0x0000000000204ac0                thread9.lto_priv.197
 .text.thread8.lto_priv.195
                0x0000000000204ae0       0x84 /tmp/ccxHBcHG.ltrans5.ltrans.o
                0x0000000000204ae0                thread8.lto_priv.195
 *fill*         0x0000000000204b64        0xc 
 .text.thread6.lto_priv.196
                0x0000000000204b70       0x6c /tmp/ccxHBcHG.ltrans5.ltrans.o
                0x0000000000204b70                thread6.lto_priv.196
 *fill*         0x0000000000204bdc        0x4 
 .text.thread1.lto_priv.202
                0x0000000000204be0       0x18 /tmp/ccxHBcHG.ltrans5.ltrans.o
 *fill*         0x0000000000204bf8        0x8 
 .text.rt_test_005_001_teardown.lto_priv.111
                0x0000000000204c00        0xc /tmp/ccxHBcHG.ltrans5.ltrans.o
                0x0000000000204c00                rt_test_005_001_teardown.lto_priv.111
 *fill*         0x0000000000204c0c        0x4 
 .text.rt_test_005_006_execute.lto_priv.123
                0x0000000000204c10      0x1b0 /tmp/ccxHBcHG.ltrans5.ltrans.o
                0x0000000000204c10                rt_test_005_006_execute.lto_priv.123
 .text.thread2  0x0000000000204dc0       0x28 /tmp/ccxHBcHG.ltrans5.ltrans.o
 *fill*         0x0000000000204de8        0x8 
 .text.thread4  0x0000000000204df0       0x2c /tmp/ccxHBcHG.ltrans5.ltrans.o
 *fill*         0x0000000000204e1c        0x4 
 .text.rt_test_005_005_execute.lto_priv.121
                0x0000000000204e20       0x9c /tmp/ccxHBcHG.ltrans5.ltrans.o
                0x0000000000204e20                rt_test_005_005_execute.lto_priv.121
 *fill*         0x0000000000204ebc        0x4 
 .text.thread3  0x0000000000204ec0       0x18 /tmp/ccxHBcHG.ltrans5.ltrans.o
 *fill*         0x0000000000204ed8        0x8 
 .text.rt_test_005_002_execute.lto_priv.114
                0x0000000000204ee0       0xf0 /tmp/ccxHBcHG.ltrans5.ltrans.o
                0x0000000000204ee0                rt_test_005_002_execute.lto_priv.114
 .text.rt_test_005_001_execute.lto_priv.112
                0x0000000000204fd0       0xc4 /tmp/ccxHBcHG.ltrans5.ltrans.o
                0x0000000000204fd0                rt_test_005_001_execute.lto_priv.112
 *fill*         0x0000000000205094        0xc 
 .text.rt_test_005_003_execute.lto_priv.116
                0x00000000002050a0      0x160 /tmp/ccxHBcHG.ltrans5.ltrans.o
                0x00000000002050a0                rt_test_005_003_execute.lto_priv.116
 .text.Thread1  0x0000000000205200       0x34 /tmp/ccxHBcHG.ltrans6.ltrans.o
 *fill*         0x0000000000205234        0xc 
 .text.oslib_test_004_005_execute
                0x0000000000205240      0x128 /tmp/ccxHBcHG.ltrans6.ltrans.o
 *fill*         0x0000000000205368        0x8 
 .text.oslib_test_004_005_teardown
                0x0000000000205370       0x1c /tmp/ccxHBcHG.ltrans6.ltrans.o
 *fill*         0x000000000020538c        0x4 
 .text.oslib_test_004_004_execute
                0x0000000000205390      0x128 /tmp/ccxHBcHG.ltrans6.ltrans.o
 *fill*         0x00000000002054b8        0x8 
 .text.oslib_test_004_004_teardown
                0x00000000002054c0       0x1c /tmp/ccxHBcHG.ltrans6.ltrans.o
 *fill*         0x00000000002054dc        0x4 
 .text.oslib_test_004_003_execute
                0x00000000002054e0      0x128 /tmp/ccxHBcHG.ltrans6.ltrans.o
 *fill*         0x0000000000205608        0x8 
 .text.oslib_test_004_003_teardown
                0x0000000000205610       0x1c /tmp/ccxHBcHG.ltrans6.ltrans.o
 *fill*         0x000000000020562c        0x4 
 .text.oslib_test_004_002_execute
                0x0000000000205630      0x128 /tmp/ccxHBcHG.ltrans6.ltrans.o
 *fill*         0x0000000000205758        0x8 
 .text.oslib_test_004_002_teardown
                0x0000000000205760       0x1c /tmp/ccxHBcHG.ltrans6.ltrans.o
 *fill*         0x000000000020577c        0x4 
 .text.startup.main
                0x0000000000205780      0x4c0 /tmp/ccxHBcHG.ltrans6.ltrans.o
                0x0000000000205780                main
 .text.notify1.lto_priv.86
                0x0000000000205c40       0x10 /tmp/ccxHBcHG.ltrans7.ltrans.o
                0x0000000000205c40                notify1.lto_priv.86
 .text._ctl.lto_priv.96
                0x0000000000205c50        0x4 /tmp/ccxHBcHG.ltrans7.ltrans.o
                0x0000000000205c50                _ctl.lto_priv.96
 *fill*         0x0000000000205c54        0xc 
 .text.oqPutTimeout
                0x0000000000205c60       0x54 /tmp/ccxHBcHG.ltrans7.ltrans.o
 *fill*         0x0000000000205cb4        0xc 
 .text._putt.lto_priv.92
                0x0000000000205cc0        0x8 /tmp/ccxHBcHG.ltrans7.ltrans.o
                0x0000000000205cc0                _putt.lto_priv.92
 *fill*         0x0000000000205cc8        0x8 
 .text._put.lto_priv.90
                0x0000000000205cd0        0xc /tmp/ccxHBcHG.ltrans7.ltrans.o
                0x0000000000205cd0                _put.lto_priv.90
 *fill*         0x0000000000205cdc        0x4 
 .text.iqGetTimeout
                0x0000000000205ce0       0x50 /tmp/ccxHBcHG.ltrans7.ltrans.o
 .text._gett.lto_priv.93
                0x0000000000205d30        0x8 /tmp/ccxHBcHG.ltrans7.ltrans.o
                0x0000000000205d30                _gett.lto_priv.93
 *fill*         0x0000000000205d38        0x8 
 .text._get.lto_priv.91
                0x0000000000205d40        0xc /tmp/ccxHBcHG.ltrans7.ltrans.o
                0x0000000000205d40                _get.lto_priv.91
 *fill*         0x0000000000205d4c        0x4 
 .text.oqWriteTimeout
                0x0000000000205d50       0xcc /tmp/ccxHBcHG.ltrans7.ltrans.o
 *fill*         0x0000000000205e1c        0x4 
 .text._writet.lto_priv.94
                0x0000000000205e20        0x8 /tmp/ccxHBcHG.ltrans7.ltrans.o
                0x0000000000205e20                _writet.lto_priv.94
 *fill*         0x0000000000205e28        0x8 
 .text._write.lto_priv.88
                0x0000000000205e30        0xc /tmp/ccxHBcHG.ltrans7.ltrans.o
                0x0000000000205e30                _write.lto_priv.88
 *fill*         0x0000000000205e3c        0x4 
 .text.iqReadTimeout
                0x0000000000205e40       0xcc /tmp/ccxHBcHG.ltrans7.ltrans.o
 *fill*         0x0000000000205f0c        0x4 
 .text._readt.lto_priv.95
                0x0000000000205f10        0x8 /tmp/ccxHBcHG.ltrans7.ltrans.o
                0x0000000000205f10                _readt.lto_priv.95
 *fill*         0x0000000000205f18        0x8 
 .text._read.lto_priv.89
                0x0000000000205f20        0xc /tmp/ccxHBcHG.ltrans7.ltrans.o
                0x0000000000205f20                _read.lto_priv.89
 *fill*         0x0000000000205f2c        0x4 
 .text.__early_init
                0x0000000000205f30      0x32c /tmp/ccxHBcHG.ltrans7.ltrans.o
                0x0000000000205f30                __early_init
 *fill*         0x000000000020625c        0x4 
 .text.VectorD4
                0x0000000000206260      0x170 /tmp/ccxHBcHG.ltrans7.ltrans.o
                0x0000000000206260                VectorD4
 .text.VectorB0
                0x00000000002063d0       0xa0 /tmp/ccxHBcHG.ltrans7.ltrans.o
                0x00000000002063d0                VectorB0
 .text.VectorE0
                0x0000000000206470      0x11c /tmp/ccxHBcHG.ltrans7.ltrans.o
                0x0000000000206470                VectorE0
 *fill*         0x000000000020658c        0x4 
 .text.Vector9C
                0x0000000000206590       0xe8 /tmp/ccxHBcHG.ltrans7.ltrans.o
                0x0000000000206590                Vector9C
 *fill*         0x0000000000206678        0x8 
 .text.Vector68
                0x0000000000206680       0x44 /tmp/ccxHBcHG.ltrans7.ltrans.o
                0x0000000000206680                Vector68
 *fill*         0x00000000002066c4        0xc 
 .text.Vector64
                0x00000000002066d0       0x44 /tmp/ccxHBcHG.ltrans7.ltrans.o
                0x00000000002066d0                Vector64
 *fill*         0x0000000000206714        0xc 
 .text.Vector60
                0x0000000000206720       0x44 /tmp/ccxHBcHG.ltrans7.ltrans.o
                0x0000000000206720                Vector60
 *fill*         0x0000000000206764        0xc 
 .text.Vector5C
                0x0000000000206770       0x44 /tmp/ccxHBcHG.ltrans7.ltrans.o
                0x0000000000206770                Vector5C
 *fill*         0x00000000002067b4        0xc 
 .text.Vector58
                0x00000000002067c0       0x40 /tmp/ccxHBcHG.ltrans7.ltrans.o
                0x00000000002067c0                Vector58
 .text.__init_ram_areas
                0x0000000000206800       0x64 /tmp/ccxHBcHG.ltrans7.ltrans.o
                0x0000000000206800                __init_ram_areas
 *fill*         0x0000000000206864        0xc 
 .text.__default_exit
                0x0000000000206870        0x4 /tmp/ccxHBcHG.ltrans7.ltrans.o
                0x0000000000206870                __default_exit
 *fill*         0x0000000000206874        0xc 
 .text.__late_init
                0x0000000000206880        0x4 /tmp/ccxHBcHG.ltrans7.ltrans.o
                0x0000000000206880                __late_init
 *fill*         0x0000000000206884        0xc 
 .text.__core_init
                0x0000000000206890       0x84 /tmp/ccxHBcHG.ltrans7.ltrans.o
                0x0000000000206890                __core_init
 *fill*         0x0000000000206914        0xc 
 .text.chCoreAllocAlignedWithOffset
                0x0000000000206920       0x44 /tmp/ccxHBcHG.ltrans8.ltrans.o
                0x0000000000206920                chCoreAllocAlignedWithOffset
 *fill*         0x0000000000206964        0xc 
 .text.wakeup.lto_priv.204
                0x0000000000206970       0x70 /tmp/ccxHBcHG.ltrans8.ltrans.o
                0x0000000000206970                wakeup.lto_priv.204
 .text._idle_thread.lto_priv.87
                0x00000000002069e0        0x4 /tmp/ccxHBcHG.ltrans8.ltrans.o
                0x00000000002069e0                _idle_thread.lto_priv.87
 *fill*         0x00000000002069e4        0xc 
 .text.chEvtAddEvents
                0x00000000002069f0       0x1c /tmp/ccxHBcHG.ltrans8.ltrans.o
                0x00000000002069f0                chEvtAddEvents
 *fill*         0x0000000000206a0c        0x4 
 .text.chEvtUnregister
                0x0000000000206a10       0x2c /tmp/ccxHBcHG.ltrans8.ltrans.o
                0x0000000000206a10                chEvtUnregister
 *fill*         0x0000000000206a3c        0x4 
 .text.chTMStopMeasurementX
                0x0000000000206a40       0x44 /tmp/ccxHBcHG.ltrans8.ltrans.o
                0x0000000000206a40                chTMStopMeasurementX
 *fill*         0x0000000000206a84        0xc 
 .text.chThdYield
                0x0000000000206a90       0x58 /tmp/ccxHBcHG.ltrans8.ltrans.o
                0x0000000000206a90                chThdYield
 *fill*         0x0000000000206ae8        0x8 
 .text.chThdCreateSuspendedI
                0x0000000000206af0       0x88 /tmp/ccxHBcHG.ltrans8.ltrans.o
                0x0000000000206af0                chThdCreateSuspendedI
 *fill*         0x0000000000206b78        0x8 
 .text.chSchDoRescheduleAhead
                0x0000000000206b80       0x40 /tmp/ccxHBcHG.ltrans8.ltrans.o
                0x0000000000206b80                chSchDoReschedule
 .text.chSchRescheduleS
                0x0000000000206bc0       0x18 /tmp/ccxHBcHG.ltrans8.ltrans.o
                0x0000000000206bc0                chSchRescheduleS
 *fill*         0x0000000000206bd8        0x8 
 .text.chThdSetPriority
                0x0000000000206be0       0x30 /tmp/ccxHBcHG.ltrans8.ltrans.o
                0x0000000000206be0                chThdSetPriority
 .text.chSchWakeupS
                0x0000000000206c10       0x60 /tmp/ccxHBcHG.ltrans8.ltrans.o
                0x0000000000206c10                chSchWakeupS
 .text.chSemSignal
                0x0000000000206c70       0x34 /tmp/ccxHBcHG.ltrans8.ltrans.o
                0x0000000000206c70                chSemSignal
 *fill*         0x0000000000206ca4        0xc 
 .text.chSchGoSleepS
                0x0000000000206cb0       0x28 /tmp/ccxHBcHG.ltrans8.ltrans.o
                0x0000000000206cb0                chSchGoSleepS
 *fill*         0x0000000000206cd8        0x8 
 .text.chMsgWait
                0x0000000000206ce0       0x40 /tmp/ccxHBcHG.ltrans8.ltrans.o
                0x0000000000206ce0                chMsgWait
 .text.chSemWait
                0x0000000000206d20       0x44 /tmp/ccxHBcHG.ltrans8.ltrans.o
                0x0000000000206d20                chSemWait
 *fill*         0x0000000000206d64        0xc 
 .text.chSchReadyI
                0x0000000000206d70       0x2c /tmp/ccxHBcHG.ltrans8.ltrans.o
                0x0000000000206d70                chSchReadyI
 *fill*         0x0000000000206d9c        0x4 
 .text.chMsgSend
                0x0000000000206da0       0x40 /tmp/ccxHBcHG.ltrans8.ltrans.o
                0x0000000000206da0                chMsgSend
 .text.chEvtSignalI
                0x0000000000206de0       0x30 /tmp/ccxHBcHG.ltrans8.ltrans.o
                0x0000000000206de0                chEvtSignalI
 .text.chEvtBroadcastFlagsI
                0x0000000000206e10       0x2c /tmp/ccxHBcHG.ltrans8.ltrans.o
                0x0000000000206e10                chEvtBroadcastFlagsI
 *fill*         0x0000000000206e3c        0x4 
 .text.chMtxUnlockS
                0x0000000000206e40       0x50 /tmp/ccxHBcHG.ltrans8.ltrans.o
                0x0000000000206e40                chMtxUnlockS
 .text.chMtxUnlock
                0x0000000000206e90       0x64 /tmp/ccxHBcHG.ltrans8.ltrans.o
                0x0000000000206e90                chMtxUnlock
 *fill*         0x0000000000206ef4        0xc 
 .text.chMtxLockS
                0x0000000000206f00       0xc8 /tmp/ccxHBcHG.ltrans8.ltrans.o
                0x0000000000206f00                chMtxLockS
 *fill*         0x0000000000206fc8        0x8 
 .text.chMtxLock
                0x0000000000206fd0       0x14 /tmp/ccxHBcHG.ltrans8.ltrans.o
                0x0000000000206fd0                chMtxLock
 *fill*         0x0000000000206fe4        0xc 
 .text.chHeapFree
                0x0000000000206ff0       0xa0 /tmp/ccxHBcHG.ltrans8.ltrans.o
                0x0000000000206ff0                chHeapFree
 .text.chThdRelease
                0x0000000000207090       0x64 /tmp/ccxHBcHG.ltrans8.ltrans.o
                0x0000000000207090                chThdRelease
 *fill*         0x00000000002070f4        0xc 
 .text.chThdWait
                0x0000000000207100       0x38 /tmp/ccxHBcHG.ltrans8.ltrans.o
                0x0000000000207100                chThdWait
 *fill*         0x0000000000207138        0x8 
 .text.chSemSignalI
                0x0000000000207140       0x24 /tmp/ccxHBcHG.ltrans8.ltrans.o
                0x0000000000207140                chSemSignalI
 *fill*         0x0000000000207164        0xc 
 .text.chSemReset
                0x0000000000207170       0x38 /tmp/ccxHBcHG.ltrans8.ltrans.o
                0x0000000000207170                chSemReset
 *fill*         0x00000000002071a8        0x8 
 .text.chThdDequeueAllI
                0x00000000002071b0       0x24 /tmp/ccxHBcHG.ltrans8.ltrans.o
                0x00000000002071b0                chThdDequeueAllI
 *fill*         0x00000000002071d4        0xc 
 .text.chThdExit
                0x00000000002071e0       0x50 /tmp/ccxHBcHG.ltrans8.ltrans.o
                0x00000000002071e0                chThdExit
 .text.chVTDoResetI
                0x0000000000207230       0x70 /tmp/ccxHBcHG.ltrans8.ltrans.o
                0x0000000000207230                chVTDoResetI
 .text.chVTDoSetI
                0x00000000002072a0       0x78 /tmp/ccxHBcHG.ltrans8.ltrans.o
                0x00000000002072a0                chVTDoSetI
 *fill*         0x0000000000207318        0x8 
 .text.chSchGoSleepTimeoutS
                0x0000000000207320       0x44 /tmp/ccxHBcHG.ltrans8.ltrans.o
                0x0000000000207320                chSchGoSleepTimeoutS
 *fill*         0x0000000000207364        0xc 
 .text.chThdEnqueueTimeoutS
                0x0000000000207370       0x28 /tmp/ccxHBcHG.ltrans8.ltrans.o
                0x0000000000207370                chThdEnqueueTimeoutS
 *fill*         0x0000000000207398        0x8 
 .text.chThdSleep
                0x00000000002073a0       0x18 /tmp/ccxHBcHG.ltrans8.ltrans.o
                0x00000000002073a0                chThdSleep
 *fill*         0x00000000002073b8        0x8 
 .text.chSysRestoreStatusX.part.2
                0x00000000002073c0       0x20 /tmp/ccxHBcHG.ltrans8.ltrans.o
                0x00000000002073c0                chSysRestoreStatusX.part.2
 .text.chSysGetStatusAndLockX.part.1
                0x00000000002073e0        0xc /tmp/ccxHBcHG.ltrans8.ltrans.o
                0x00000000002073e0                chSysGetStatusAndLockX.part.1
 *fill*         0x00000000002073ec        0x4 
 .text.chSysIntegrityCheckI
                0x00000000002073f0       0xac /tmp/ccxHBcHG.ltrans8.ltrans.o
                0x00000000002073f0                chSysIntegrityCheckI
 *fill*         0x000000000020749c        0x4 
 .text.rt_test_004_001_setup.lto_priv.108
                0x00000000002074a0        0xc /tmp/ccxHBcHG.ltrans9.ltrans.o
                0x00000000002074a0                rt_test_004_001_setup.lto_priv.108
 *fill*         0x00000000002074ac        0x4 
 .text.rt_test_002_004_execute.lto_priv.103
                0x00000000002074b0       0x1c /tmp/ccxHBcHG.ltrans9.ltrans.o
                0x00000000002074b0                rt_test_002_004_execute.lto_priv.103
 *fill*         0x00000000002074cc        0x4 
 .text.rt_test_002_003_execute.lto_priv.102
                0x00000000002074d0       0x24 /tmp/ccxHBcHG.ltrans9.ltrans.o
                0x00000000002074d0                rt_test_002_003_execute.lto_priv.102
 *fill*         0x00000000002074f4        0xc 
 .text.thread.lto_priv.200
                0x0000000000207500        0x8 /tmp/ccxHBcHG.ltrans9.ltrans.o
                0x0000000000207500                thread.lto_priv.200
 *fill*         0x0000000000207508        0x8 
 .text.rt_test_004_001_execute.lto_priv.109
                0x0000000000207510       0xec /tmp/ccxHBcHG.ltrans9.ltrans.o
                0x0000000000207510                rt_test_004_001_execute.lto_priv.109
 *fill*         0x00000000002075fc        0x4 
 .text.thread1  0x0000000000207600       0x34 /tmp/ccxHBcHG.ltrans9.ltrans.o
 *fill*         0x0000000000207634        0xc 
 .text.rt_test_003_004_execute.lto_priv.107
                0x0000000000207640       0xdc /tmp/ccxHBcHG.ltrans9.ltrans.o
                0x0000000000207640                rt_test_003_004_execute.lto_priv.107
 *fill*         0x000000000020771c        0x4 
 .text.rt_test_003_003_execute.lto_priv.106
                0x0000000000207720       0x88 /tmp/ccxHBcHG.ltrans9.ltrans.o
                0x0000000000207720                rt_test_003_003_execute.lto_priv.106
 *fill*         0x00000000002077a8        0x8 
 .text.rt_test_003_002_execute.lto_priv.105
                0x00000000002077b0      0x194 /tmp/ccxHBcHG.ltrans9.ltrans.o
                0x00000000002077b0                rt_test_003_002_execute.lto_priv.105
 *fill*         0x0000000000207944        0xc 
 .text.rt_test_003_001_execute.lto_priv.104
                0x0000000000207950       0xb8 /tmp/ccxHBcHG.ltrans9.ltrans.o
                0x0000000000207950                rt_test_003_001_execute.lto_priv.104
 *fill*         0x0000000000207a08        0x8 
 .text.rt_test_002_002_execute.lto_priv.101
                0x0000000000207a10       0xd4 /tmp/ccxHBcHG.ltrans9.ltrans.o
                0x0000000000207a10                rt_test_002_002_execute.lto_priv.101
 *fill*         0x0000000000207ae4        0xc 
 .text.vtcb     0x0000000000207af0       0x28 /tmp/ccxHBcHG.ltrans9.ltrans.o
 *fill*         0x0000000000207b18        0x8 
 .text.rt_test_002_001_execute.lto_priv.100
                0x0000000000207b20       0xa8 /tmp/ccxHBcHG.ltrans9.ltrans.o
                0x0000000000207b20                rt_test_002_001_execute.lto_priv.100
 .text.memset   0x0000000000207bc8       0x9c /home/ksg/bin/gcc-arm/gcc-arm-none-eabi-6-2017-q2-update/bin/../lib/gcc/arm-none-eabi/6.3.1/../../../../arm-none-eabi/lib/thumb/v7e-m/libg.a(lib_a-memset.o)
                0x0000000000207bc8                memset
 .text.strncmp  0x0000000000207c64       0xa4 /home/ksg/bin/gcc-arm/gcc-arm-none-eabi-6-2017-q2-update/bin/../lib/gcc/arm-none-eabi/6.3.1/../../../../arm-none-eabi/lib/thumb/v7e-m/libg.a(lib_a-strncmp.o)
                0x0000000000207c64                strncmp
 .text.strncpy  0x0000000000207d08       0x64 /home/ksg/bin/gcc-arm/gcc-arm-none-eabi-6-2017-q2-update/bin/../lib/gcc/arm-none-eabi/6.3.1/../../../../arm-none-eabi/lib/thumb/v7e-m/libg.a(lib_a-strncpy.o)
                0x0000000000207d08                strncpy
 *(.glue_7t)
 .glue_7t       0x0000000000207d6c        0x0 linker stubs
 *(.glue_7)
 .glue_7        0x0000000000207d6c        0x0 linker stubs
 *(.gcc*)

.vfp11_veneer   0x0000000000207d6c        0x0 load address 0x0000000008007d6c
 .vfp11_veneer  0x0000000000207d6c        0x0 linker stubs

.v4_bx          0x0000000000207d6c        0x0 load address 0x0000000008007d6c
 .v4_bx         0x0000000000207d6c        0x0 linker stubs

.iplt           0x0000000000207d6c        0x0 load address 0x0000000008007d6c
 .iplt          0x0000000000207d6c        0x0 build/obj/crt0_v7m.o

.rodata         0x0000000008007d6c     0x21fc
                0x0000000008007d6c                . = ALIGN (0x4)
                0x0000000008007d6c                __rodata_base__ = .
 *(.rodata)
 *(.rodata.*)
 .rodata._test_assert_time_window.constprop.2.str1.4
                0x0000000008007d6c       0x13 /tmp/ccxHBcHG.ltrans0.ltrans.o
 *fill*         0x0000000008007d7f        0x1 
 .rodata.chFactoryCreateBuffer.constprop.10.str1.4
                0x0000000008007d80        0x6 /tmp/ccxHBcHG.ltrans0.ltrans.o
 *fill*         0x0000000008007d86        0x2 
 .rodata.chFactoryCreateMailbox.constprop.6.str1.4
                0x0000000008007d88        0x6 /tmp/ccxHBcHG.ltrans0.ltrans.o
 *fill*         0x0000000008007d8e        0x2 
 .rodata.chFactoryCreateObjectsFIFO.constprop.4.str1.4
                0x0000000008007d90        0x7 /tmp/ccxHBcHG.ltrans0.ltrans.o
 *fill*         0x0000000008007d97        0x1 
 .rodata.chFactoryCreateSemaphore.constprop.8.str1.4
                0x0000000008007d98        0x6 /tmp/ccxHBcHG.ltrans0.ltrans.o
 *fill*         0x0000000008007d9e        0x2 
 .rodata.chFactoryRegisterObject.constprop.12.str1.4
                0x0000000008007da0        0x6 /tmp/ccxHBcHG.ltrans0.ltrans.o
 *fill*         0x0000000008007da6        0x2 
 .rodata.chThdCreateStatic.constprop.61.str1.4
                0x0000000008007da8        0x7 /tmp/ccxHBcHG.ltrans0.ltrans.o
 *fill*         0x0000000008007daf        0x1 
 .rodata.test_execute.constprop.1.str1.4
                0x0000000008007db0      0x14c /tmp/ccxHBcHG.ltrans0.ltrans.o
                                        0x158 (size before relaxing)
 .rodata.evhndl
                0x0000000008007efc        0xc /tmp/ccxHBcHG.ltrans1.ltrans.o
 .rodata.rt_test_006_008_execute.lto_priv.134.str1.4
                0x0000000008007f08        0xa /tmp/ccxHBcHG.ltrans1.ltrans.o
                                          0xe (size before relaxing)
 *fill*         0x0000000008007f12        0x2 
 .rodata.rt_test_007_001_execute.lto_priv.137.str1.4
                0x0000000008007f14        0x5 /tmp/ccxHBcHG.ltrans1.ltrans.o
 *fill*         0x0000000008007f19        0x3 
 .rodata.rt_test_008_001_execute.lto_priv.138.str1.4
                0x0000000008007f1c       0x1b /tmp/ccxHBcHG.ltrans1.ltrans.o
 *fill*         0x0000000008007f37        0x1 
 .rodata.rt_test_008_002_execute.lto_priv.140.str1.4
                0x0000000008007f38       0x18 /tmp/ccxHBcHG.ltrans1.ltrans.o
 .rodata.rt_test_008_003_execute.lto_priv.142.str1.4
                0x0000000008007f50       0x13 /tmp/ccxHBcHG.ltrans1.ltrans.o
 *fill*         0x0000000008007f63        0x1 
 .rodata.rt_test_008_004_execute.lto_priv.144.str1.4
                0x0000000008007f64       0x11 /tmp/ccxHBcHG.ltrans1.ltrans.o
 *fill*         0x0000000008007f75        0x3 
 .rodata.rt_test_008_005_execute.lto_priv.146.str1.4
                0x0000000008007f78       0x2a /tmp/ccxHBcHG.ltrans1.ltrans.o
 *fill*         0x0000000008007fa2        0x2 
 .rodata.rt_test_008_006_execute.lto_priv.148.str1.4
                0x0000000008007fa4        0xf /tmp/ccxHBcHG.ltrans1.ltrans.o
 *fill*         0x0000000008007fb3        0x1 
 .rodata.rt_test_008_007_execute.lto_priv.150.str1.4
                0x0000000008007fb4        0xc /tmp/ccxHBcHG.ltrans1.ltrans.o
 .rodata.rt_test_009_001_execute.lto_priv.152.str1.4
                0x0000000008007fc0       0xbe /tmp/ccxHBcHG.ltrans1.ltrans.o
 *fill*         0x000000000800807e        0x2 
 .rodata.rt_test_001_001_execute.lto_priv.97.str1.4
                0x0000000008008080      0x1a9 /tmp/ccxHBcHG.ltrans2.ltrans.o
 *fill*         0x0000000008008229        0x3 
 .rodata.rt_test_001_002_execute.lto_priv.98.str1.4
                0x000000000800822c      0x115 /tmp/ccxHBcHG.ltrans2.ltrans.o
 *fill*         0x0000000008008341        0x3 
 .rodata.rt_test_001_003_execute.lto_priv.99.str1.4
                0x0000000008008344      0x78d /tmp/ccxHBcHG.ltrans2.ltrans.o
                                        0x791 (size before relaxing)
 .rodata.test_println.str1.4
                0x0000000008008ad1        0x3 /tmp/ccxHBcHG.ltrans2.ltrans.o
 *fill*         0x0000000008008ad1        0x3 
 .rodata.oslib_test_001_002_execute.lto_priv.175.str1.4
                0x0000000008008ad4       0xa3 /tmp/ccxHBcHG.ltrans3.ltrans.o
                                         0xa9 (size before relaxing)
 *fill*         0x0000000008008b77        0x1 
 .rodata.oslib_test_001_003_execute.lto_priv.178.str1.4
                0x0000000008008b78       0x16 /tmp/ccxHBcHG.ltrans3.ltrans.o
 *fill*         0x0000000008008b8e        0x2 
 .rodata.oslib_test_002_001_execute.lto_priv.180.str1.4
                0x0000000008008b90       0x19 /tmp/ccxHBcHG.ltrans3.ltrans.o
 *fill*         0x0000000008008ba9        0x3 
 .rodata.oslib_test_002_002_execute.lto_priv.182.str1.4
                0x0000000008008bac        0xb /tmp/ccxHBcHG.ltrans3.ltrans.o
 *fill*         0x0000000008008bb7        0x1 
 .rodata.oslib_test_002_003_execute.lto_priv.184.str1.4
                0x0000000008008bb8        0xf /tmp/ccxHBcHG.ltrans3.ltrans.o
 *fill*         0x0000000008008bc7        0x1 
 .rodata.oslib_test_003_001_execute.lto_priv.186.str1.4
                0x0000000008008bc8       0x55 /tmp/ccxHBcHG.ltrans3.ltrans.o
                                         0x65 (size before relaxing)
 *fill*         0x0000000008008c1d        0x3 
 .rodata.oslib_test_003_002_execute.lto_priv.187.str1.4
                0x0000000008008c20       0x2a /tmp/ccxHBcHG.ltrans3.ltrans.o
 *fill*         0x0000000008008c4a        0x2 
 .rodata.oslib_test_004_001_execute.lto_priv.189.str1.4
                0x0000000008008c4c       0x6c /tmp/ccxHBcHG.ltrans3.ltrans.o
                                         0x74 (size before relaxing)
 .rodata.oslib_test_001_001_execute.lto_priv.172.str1.4
                0x0000000008008cb8       0x13 /tmp/ccxHBcHG.ltrans4.ltrans.o
                                         0xe1 (size before relaxing)
 *fill*         0x0000000008008ccb        0x1 
 .rodata.rt_test_009_002_execute.lto_priv.154.str1.4
                0x0000000008008ccc       0x34 /tmp/ccxHBcHG.ltrans4.ltrans.o
                                         0xa8 (size before relaxing)
 .rodata.rt_test_010_003_execute.lto_priv.157.str1.4
                0x0000000008008d00        0xa /tmp/ccxHBcHG.ltrans4.ltrans.o
 *fill*         0x0000000008008d0a        0x2 
 .rodata.rt_test_010_006_execute.lto_priv.160.str1.4
                0x0000000008008d0c        0xb /tmp/ccxHBcHG.ltrans4.ltrans.o
 *fill*         0x0000000008008d17        0x1 
 .rodata.rt_test_010_007_execute.lto_priv.162.str1.4
                0x0000000008008d18       0x11 /tmp/ccxHBcHG.ltrans4.ltrans.o
 *fill*         0x0000000008008d29        0x3 
 .rodata.rt_test_010_008_execute.lto_priv.163.str1.4
                0x0000000008008d2c        0xa /tmp/ccxHBcHG.ltrans4.ltrans.o
 *fill*         0x0000000008008d36        0x2 
 .rodata.rt_test_010_009_execute.lto_priv.164.str1.4
                0x0000000008008d38        0xa /tmp/ccxHBcHG.ltrans4.ltrans.o
 *fill*         0x0000000008008d42        0x2 
 .rodata.rt_test_010_010_execute.lto_priv.166.str1.4
                0x0000000008008d44        0xf /tmp/ccxHBcHG.ltrans4.ltrans.o
 *fill*         0x0000000008008d53        0x1 
 .rodata.rt_test_010_011_execute.lto_priv.168.str1.4
                0x0000000008008d54       0x1f /tmp/ccxHBcHG.ltrans4.ltrans.o
 *fill*         0x0000000008008d73        0x1 
 .rodata.rt_test_010_012_execute.lto_priv.169.str1.4
                0x0000000008008d74       0x95 /tmp/ccxHBcHG.ltrans4.ltrans.o
 *fill*         0x0000000008008e09        0x3 
 .rodata.wa     0x0000000008008e0c       0x14 /tmp/ccxHBcHG.ltrans4.ltrans.o
                0x0000000008008e0c                wa
 .rodata.rt_test_005_001_execute.lto_priv.112.str1.4
                0x0000000008008e20       0x2b /tmp/ccxHBcHG.ltrans5.ltrans.o
 .rodata.rt_test_005_003_execute.lto_priv.116.str1.4
                0x0000000008008e4b       0x16 /tmp/ccxHBcHG.ltrans5.ltrans.o
 *fill*         0x0000000008008e4b        0x1 
 .rodata.rt_test_005_004_execute.lto_priv.118.str1.4
                0x0000000008008e4c       0x10 /tmp/ccxHBcHG.ltrans5.ltrans.o
 .rodata.rt_test_005_005_execute.lto_priv.121.str1.4
                0x0000000008008e5c       0x11 /tmp/ccxHBcHG.ltrans5.ltrans.o
 *fill*         0x0000000008008e6d        0x3 
 .rodata.rt_test_005_006_execute.lto_priv.123.str1.4
                0x0000000008008e70       0x3f /tmp/ccxHBcHG.ltrans5.ltrans.o
                                         0x46 (size before relaxing)
 .rodata.rt_test_006_001_execute.lto_priv.125.str1.4
                0x0000000008008eaf       0x26 /tmp/ccxHBcHG.ltrans5.ltrans.o
 .rodata.rt_test_006_004_execute.lto_priv.128.str1.4
                0x0000000008008eaf        0x6 /tmp/ccxHBcHG.ltrans5.ltrans.o
 *fill*         0x0000000008008eaf        0x1 
 .rodata.rt_test_006_005_execute.lto_priv.130.str1.4
                0x0000000008008eb0       0x4d /tmp/ccxHBcHG.ltrans5.ltrans.o
 *fill*         0x0000000008008efd        0x3 
 .rodata.Thread1.str1.4
                0x0000000008008f00        0x8 /tmp/ccxHBcHG.ltrans6.ltrans.o
 .rodata.ch_debug
                0x0000000008008f08       0x16 /tmp/ccxHBcHG.ltrans6.ltrans.o
 *fill*         0x0000000008008f1e        0x2 
 .rodata.idle_descriptor.7413
                0x0000000008008f20       0x18 /tmp/ccxHBcHG.ltrans6.ltrans.o
 .rodata.oslib_test_001_001
                0x0000000008008f38       0x10 /tmp/ccxHBcHG.ltrans6.ltrans.o
 .rodata.oslib_test_001_002
                0x0000000008008f48       0x10 /tmp/ccxHBcHG.ltrans6.ltrans.o
 .rodata.oslib_test_001_003
                0x0000000008008f58       0x10 /tmp/ccxHBcHG.ltrans6.ltrans.o
 .rodata.oslib_test_002_001
                0x0000000008008f68       0x10 /tmp/ccxHBcHG.ltrans6.ltrans.o
 .rodata.oslib_test_002_002
                0x0000000008008f78       0x10 /tmp/ccxHBcHG.ltrans6.ltrans.o
 .rodata.oslib_test_002_003
                0x0000000008008f88       0x10 /tmp/ccxHBcHG.ltrans6.ltrans.o
 .rodata.oslib_test_003_001
                0x0000000008008f98       0x10 /tmp/ccxHBcHG.ltrans6.ltrans.o
 .rodata.oslib_test_003_002
                0x0000000008008fa8       0x10 /tmp/ccxHBcHG.ltrans6.ltrans.o
 .rodata.oslib_test_004_001
                0x0000000008008fb8       0x10 /tmp/ccxHBcHG.ltrans6.ltrans.o
 .rodata.oslib_test_004_002
                0x0000000008008fc8       0x10 /tmp/ccxHBcHG.ltrans6.ltrans.o
 .rodata.oslib_test_004_003
                0x0000000008008fd8       0x10 /tmp/ccxHBcHG.ltrans6.ltrans.o
 .rodata.oslib_test_004_004
                0x0000000008008fe8       0x10 /tmp/ccxHBcHG.ltrans6.ltrans.o
 .rodata.oslib_test_004_005
                0x0000000008008ff8       0x10 /tmp/ccxHBcHG.ltrans6.ltrans.o
 .rodata.oslib_test_004_005_execute.str1.4
                0x0000000008009008       0x1b /tmp/ccxHBcHG.ltrans6.ltrans.o
                                         0x60 (size before relaxing)
 *fill*         0x0000000008009023        0x1 
 .rodata.oslib_test_sequence_001
                0x0000000008009024        0x8 /tmp/ccxHBcHG.ltrans6.ltrans.o
 .rodata.oslib_test_sequence_001_array
                0x000000000800902c       0x10 /tmp/ccxHBcHG.ltrans6.ltrans.o
 .rodata.oslib_test_sequence_002
                0x000000000800903c        0x8 /tmp/ccxHBcHG.ltrans6.ltrans.o
 .rodata.oslib_test_sequence_002_array
                0x0000000008009044       0x10 /tmp/ccxHBcHG.ltrans6.ltrans.o
 .rodata.oslib_test_sequence_003
                0x0000000008009054        0x8 /tmp/ccxHBcHG.ltrans6.ltrans.o
 .rodata.oslib_test_sequence_003_array
                0x000000000800905c        0xc /tmp/ccxHBcHG.ltrans6.ltrans.o
 .rodata.oslib_test_sequence_004
                0x0000000008009068        0x8 /tmp/ccxHBcHG.ltrans6.ltrans.o
 .rodata.oslib_test_sequence_004_array
                0x0000000008009070       0x18 /tmp/ccxHBcHG.ltrans6.ltrans.o
 .rodata.oslib_test_suite
                0x0000000008009088        0x8 /tmp/ccxHBcHG.ltrans6.ltrans.o
 .rodata.oslib_test_suite_array
                0x0000000008009090       0x14 /tmp/ccxHBcHG.ltrans6.ltrans.o
 .rodata.rt_test_001_001
                0x00000000080090a4       0x10 /tmp/ccxHBcHG.ltrans6.ltrans.o
 .rodata.rt_test_001_002
                0x00000000080090b4       0x10 /tmp/ccxHBcHG.ltrans6.ltrans.o
 .rodata.rt_test_001_003
                0x00000000080090c4       0x10 /tmp/ccxHBcHG.ltrans6.ltrans.o
 .rodata.rt_test_002_001
                0x00000000080090d4       0x10 /tmp/ccxHBcHG.ltrans6.ltrans.o
 .rodata.rt_test_002_002
                0x00000000080090e4       0x10 /tmp/ccxHBcHG.ltrans6.ltrans.o
 .rodata.rt_test_002_003
                0x00000000080090f4       0x10 /tmp/ccxHBcHG.ltrans6.ltrans.o
 .rodata.rt_test_002_004
                0x0000000008009104       0x10 /tmp/ccxHBcHG.ltrans6.ltrans.o
 .rodata.rt_test_003_001
                0x0000000008009114       0x10 /tmp/ccxHBcHG.ltrans6.ltrans.o
 .rodata.rt_test_003_002
                0x0000000008009124       0x10 /tmp/ccxHBcHG.ltrans6.ltrans.o
 .rodata.rt_test_003_003
                0x0000000008009134       0x10 /tmp/ccxHBcHG.ltrans6.ltrans.o
 .rodata.rt_test_003_004
                0x0000000008009144       0x10 /tmp/ccxHBcHG.ltrans6.ltrans.o
 .rodata.rt_test_004_001
                0x0000000008009154       0x10 /tmp/ccxHBcHG.ltrans6.ltrans.o
 .rodata.rt_test_005_001
                0x0000000008009164       0x10 /tmp/ccxHBcHG.ltrans6.ltrans.o
 .rodata.rt_test_005_002
                0x0000000008009174       0x10 /tmp/ccxHBcHG.ltrans6.ltrans.o
 .rodata.rt_test_005_003
                0x0000000008009184       0x10 /tmp/ccxHBcHG.ltrans6.ltrans.o
 .rodata.rt_test_005_004
                0x0000000008009194       0x10 /tmp/ccxHBcHG.ltrans6.ltrans.o
 .rodata.rt_test_005_005
                0x00000000080091a4       0x10 /tmp/ccxHBcHG.ltrans6.ltrans.o
 .rodata.rt_test_005_006
                0x00000000080091b4       0x10 /tmp/ccxHBcHG.ltrans6.ltrans.o
 .rodata.rt_test_006_001
                0x00000000080091c4       0x10 /tmp/ccxHBcHG.ltrans6.ltrans.o
 .rodata.rt_test_006_004
                0x00000000080091d4       0x10 /tmp/ccxHBcHG.ltrans6.ltrans.o
 .rodata.rt_test_006_005
                0x00000000080091e4       0x10 /tmp/ccxHBcHG.ltrans6.ltrans.o
 .rodata.rt_test_006_007
                0x00000000080091f4       0x10 /tmp/ccxHBcHG.ltrans6.ltrans.o
 .rodata.rt_test_006_008
                0x0000000008009204       0x10 /tmp/ccxHBcHG.ltrans6.ltrans.o
 .rodata.rt_test_006_009
                0x0000000008009214       0x10 /tmp/ccxHBcHG.ltrans6.ltrans.o
 .rodata.rt_test_007_001
                0x0000000008009224       0x10 /tmp/ccxHBcHG.ltrans6.ltrans.o
 .rodata.rt_test_008_001
                0x0000000008009234       0x10 /tmp/ccxHBcHG.ltrans6.ltrans.o
 .rodata.rt_test_008_002
                0x0000000008009244       0x10 /tmp/ccxHBcHG.ltrans6.ltrans.o
 .rodata.rt_test_008_003
                0x0000000008009254       0x10 /tmp/ccxHBcHG.ltrans6.ltrans.o
 .rodata.rt_test_008_004
                0x0000000008009264       0x10 /tmp/ccxHBcHG.ltrans6.ltrans.o
 .rodata.rt_test_008_005
                0x0000000008009274       0x10 /tmp/ccxHBcHG.ltrans6.ltrans.o
 .rodata.rt_test_008_006
                0x0000000008009284       0x10 /tmp/ccxHBcHG.ltrans6.ltrans.o
 .rodata.rt_test_008_007
                0x0000000008009294       0x10 /tmp/ccxHBcHG.ltrans6.ltrans.o
 .rodata.rt_test_009_001
                0x00000000080092a4       0x10 /tmp/ccxHBcHG.ltrans6.ltrans.o
 .rodata.rt_test_009_002
                0x00000000080092b4       0x10 /tmp/ccxHBcHG.ltrans6.ltrans.o
 .rodata.rt_test_010_001
                0x00000000080092c4       0x10 /tmp/ccxHBcHG.ltrans6.ltrans.o
 .rodata.rt_test_010_002
                0x00000000080092d4       0x10 /tmp/ccxHBcHG.ltrans6.ltrans.o
 .rodata.rt_test_010_003
                0x00000000080092e4       0x10 /tmp/ccxHBcHG.ltrans6.ltrans.o
 .rodata.rt_test_010_004
                0x00000000080092f4       0x10 /tmp/ccxHBcHG.ltrans6.ltrans.o
 .rodata.rt_test_010_005
                0x0000000008009304       0x10 /tmp/ccxHBcHG.ltrans6.ltrans.o
 .rodata.rt_test_010_006
                0x0000000008009314       0x10 /tmp/ccxHBcHG.ltrans6.ltrans.o
 .rodata.rt_test_010_007
                0x0000000008009324       0x10 /tmp/ccxHBcHG.ltrans6.ltrans.o
 .rodata.rt_test_010_008
                0x0000000008009334       0x10 /tmp/ccxHBcHG.ltrans6.ltrans.o
 .rodata.rt_test_010_009
                0x0000000008009344       0x10 /tmp/ccxHBcHG.ltrans6.ltrans.o
 .rodata.rt_test_010_010
                0x0000000008009354       0x10 /tmp/ccxHBcHG.ltrans6.ltrans.o
 .rodata.rt_test_010_011
                0x0000000008009364       0x10 /tmp/ccxHBcHG.ltrans6.ltrans.o
 .rodata.rt_test_010_012
                0x0000000008009374       0x10 /tmp/ccxHBcHG.ltrans6.ltrans.o
 .rodata.rt_test_sequence_001
                0x0000000008009384        0x8 /tmp/ccxHBcHG.ltrans6.ltrans.o
 .rodata.rt_test_sequence_001_array
                0x000000000800938c       0x10 /tmp/ccxHBcHG.ltrans6.ltrans.o
 .rodata.rt_test_sequence_002
                0x000000000800939c        0x8 /tmp/ccxHBcHG.ltrans6.ltrans.o
 .rodata.rt_test_sequence_002_array
                0x00000000080093a4       0x14 /tmp/ccxHBcHG.ltrans6.ltrans.o
 .rodata.rt_test_sequence_003
                0x00000000080093b8        0x8 /tmp/ccxHBcHG.ltrans6.ltrans.o
 .rodata.rt_test_sequence_003_array
                0x00000000080093c0       0x14 /tmp/ccxHBcHG.ltrans6.ltrans.o
 .rodata.rt_test_sequence_004
                0x00000000080093d4        0x8 /tmp/ccxHBcHG.ltrans6.ltrans.o
 .rodata.rt_test_sequence_004_array
                0x00000000080093dc        0x8 /tmp/ccxHBcHG.ltrans6.ltrans.o
 .rodata.rt_test_sequence_005
                0x00000000080093e4        0x8 /tmp/ccxHBcHG.ltrans6.ltrans.o
 .rodata.rt_test_sequence_005_array
                0x00000000080093ec       0x1c /tmp/ccxHBcHG.ltrans6.ltrans.o
 .rodata.rt_test_sequence_006
                0x0000000008009408        0x8 /tmp/ccxHBcHG.ltrans6.ltrans.o
 .rodata.rt_test_sequence_006_array
                0x0000000008009410       0x1c /tmp/ccxHBcHG.ltrans6.ltrans.o
 .rodata.rt_test_sequence_007
                0x000000000800942c        0x8 /tmp/ccxHBcHG.ltrans6.ltrans.o
 .rodata.rt_test_sequence_007_array
                0x0000000008009434        0x8 /tmp/ccxHBcHG.ltrans6.ltrans.o
 .rodata.rt_test_sequence_008
                0x000000000800943c        0x8 /tmp/ccxHBcHG.ltrans6.ltrans.o
 .rodata.rt_test_sequence_008_array
                0x0000000008009444       0x20 /tmp/ccxHBcHG.ltrans6.ltrans.o
 .rodata.rt_test_sequence_009
                0x0000000008009464        0x8 /tmp/ccxHBcHG.ltrans6.ltrans.o
 .rodata.rt_test_sequence_009_array
                0x000000000800946c        0xc /tmp/ccxHBcHG.ltrans6.ltrans.o
 .rodata.rt_test_sequence_010
                0x0000000008009478        0x8 /tmp/ccxHBcHG.ltrans6.ltrans.o
 .rodata.rt_test_sequence_010_array
                0x0000000008009480       0x34 /tmp/ccxHBcHG.ltrans6.ltrans.o
 .rodata.rt_test_suite
                0x00000000080094b4        0x8 /tmp/ccxHBcHG.ltrans6.ltrans.o
 .rodata.rt_test_suite_array
                0x00000000080094bc       0x2c /tmp/ccxHBcHG.ltrans6.ltrans.o
 .rodata.str1.4
                0x00000000080094e8      0x8c2 /tmp/ccxHBcHG.ltrans6.ltrans.o
 *fill*         0x0000000008009daa        0x2 
 .rodata.vmt    0x0000000008009dac       0x24 /tmp/ccxHBcHG.ltrans6.ltrans.o
 .rodata.ram_areas
                0x0000000008009dd0       0x80 /tmp/ccxHBcHG.ltrans7.ltrans.o
 .rodata.rt_test_002_001_execute.lto_priv.100.str1.4
                0x0000000008009e50       0x70 /tmp/ccxHBcHG.ltrans9.ltrans.o
 .rodata.rt_test_002_002_execute.lto_priv.101.str1.4
                0x0000000008009ec0       0x12 /tmp/ccxHBcHG.ltrans9.ltrans.o
 .rodata.rt_test_003_002_execute.lto_priv.105.str1.4
                0x0000000008009ed2       0x2a /tmp/ccxHBcHG.ltrans9.ltrans.o
 *fill*         0x0000000008009ed2        0x2 
 .rodata.rt_test_003_004_execute.lto_priv.107.str1.4
                0x0000000008009ed4       0x87 /tmp/ccxHBcHG.ltrans9.ltrans.o
 *fill*         0x0000000008009f5b        0x1 
 .rodata.rt_test_004_001_execute.lto_priv.109.str1.4
                0x0000000008009f5c        0xc /tmp/ccxHBcHG.ltrans9.ltrans.o
                                         0x27 (size before relaxing)
                0x0000000008009f68                . = ALIGN (0x4)
                0x0000000008009f68                __rodata_end__ = .

.rel.dyn        0x0000000008009f68        0x0
 .rel.iplt      0x0000000008009f68        0x0 build/obj/crt0_v7m.o

.ARM.extab
 *(.ARM.extab* .gnu.linkonce.armextab.*)

.ARM.exidx      0x0000000000207d6c        0x0 load address 0x0000000008009f68
                0x0000000000207d6c                __exidx_start = .
 *(.ARM.exidx* .gnu.linkonce.armexidx.*)
                0x0000000000207d6c                __exidx_end = .

.eh_frame_hdr
 *(.eh_frame_hdr)

.eh_frame
 *(.eh_frame)
                0x0000000020020000                __ram0_start__ = ORIGIN (ram0)
                0x0000000000060000                __ram0_size__ = LENGTH (ram0)
                0x0000000020080000                __ram0_end__ = (__ram0_start__ + __ram0_size__)
                0x0000000020020000                __ram1_start__ = ORIGIN (ram1)
                0x000000000005c000                __ram1_size__ = LENGTH (ram1)
                0x000000002007c000                __ram1_end__ = (__ram1_start__ + __ram1_size__)
                0x000000002007c000                __ram2_start__ = ORIGIN (ram2)
                0x0000000000004000                __ram2_size__ = LENGTH (ram2)
                0x0000000020080000                __ram2_end__ = (__ram2_start__ + __ram2_size__)
                0x0000000020000000                __ram3_start__ = ORIGIN (ram3)
                0x0000000000020000                __ram3_size__ = LENGTH (ram3)
                0x0000000020020000                __ram3_end__ = (__ram3_start__ + __ram3_size__)
                0x0000000000000000                __ram4_start__ = ORIGIN (ram4)
                0x0000000000004000                __ram4_size__ = LENGTH (ram4)
                0x0000000000004000                __ram4_end__ = (__ram4_start__ + __ram4_size__)
                0x0000000040024000                __ram5_start__ = ORIGIN (ram5)
                0x0000000000001000                __ram5_size__ = LENGTH (ram5)
                0x0000000040025000                __ram5_end__ = (__ram5_start__ + __ram5_size__)
                0x0000000000000000                __ram6_start__ = ORIGIN (ram6)
                0x0000000000000000                __ram6_size__ = LENGTH (ram6)
                0x0000000000000000                __ram6_end__ = (__ram6_start__ + __ram6_size__)
                0x0000000000000000                __ram7_start__ = ORIGIN (ram7)
                0x0000000000000000                __ram7_size__ = LENGTH (ram7)
                0x0000000000000000                __ram7_end__ = (__ram7_start__ + __ram7_size__)

.data           0x0000000020020000       0x8c load address 0x0000000008009f68
                0x0000000020020000                . = ALIGN (0x4)
                [!provide]                        PROVIDE (_textdata, LOADADDR (.data))
                [!provide]                        PROVIDE (_data, .)
                0x0000000008009f68                _textdata_start = LOADADDR (.data)
                0x0000000020020000                _data_start = .
 *(.data)
 *(.data.*)
 .data.c1.lto_priv.198
                0x0000000020020000        0x8 /tmp/ccxHBcHG.ltrans0.ltrans.o
                0x0000000020020000                c1.lto_priv.198
 .data.gmp1.lto_priv.190
                0x0000000020020008       0x1c /tmp/ccxHBcHG.ltrans0.ltrans.o
                0x0000000020020008                gmp1.lto_priv.190
 .data.m1.lto_priv.199
                0x0000000020020024       0x10 /tmp/ccxHBcHG.ltrans0.ltrans.o
                0x0000000020020024                m1.lto_priv.199
 .data.mb1.lto_priv.191
                0x0000000020020034       0x28 /tmp/ccxHBcHG.ltrans0.ltrans.o
                0x0000000020020034                mb1.lto_priv.191
 .data.es1      0x000000002002005c        0x4 /tmp/ccxHBcHG.ltrans1.ltrans.o
 .data.es2      0x0000000020020060        0x4 /tmp/ccxHBcHG.ltrans1.ltrans.o
 .data.m2.lto_priv.201
                0x0000000020020064       0x10 /tmp/ccxHBcHG.ltrans1.ltrans.o
                0x0000000020020064                m2.lto_priv.201
 .data.mp1      0x0000000020020074       0x10 /tmp/ccxHBcHG.ltrans3.ltrans.o
 .data.myobj.8106
                0x0000000020020084        0x4 /tmp/ccxHBcHG.ltrans3.ltrans.o
 .data.myobj.8108
                0x0000000020020088        0x4 /tmp/ccxHBcHG.ltrans3.ltrans.o
 *(.ramtext)
                0x000000002002008c                . = ALIGN (0x4)
                [!provide]                        PROVIDE (_edata, .)
                0x000000002002008c                _data_end = .

.igot.plt       0x000000002002008c        0x0 load address 0x0000000008009ff4
 .igot.plt      0x000000002002008c        0x0 build/obj/crt0_v7m.o

.bss            0x0000000020000800      0xc64
                0x0000000020000800                . = ALIGN (0x4)
                0x0000000020000800                _bss_start = .
 *(.bss)
 *(.bss.*)
 .bss.SD1       0x0000000020000800       0x60 /tmp/ccxHBcHG.ltrans0.ltrans.o
                0x0000000020000800                SD1
 .bss.ch        0x0000000020000860       0x78 /tmp/ccxHBcHG.ltrans0.ltrans.o
                0x0000000020000860                ch
 .bss.ch_factory
                0x00000000200008d8       0x44 /tmp/ccxHBcHG.ltrans0.ltrans.o
                0x00000000200008d8                ch_factory
 .bss.default_heap.lto_priv.85
                0x000000002000091c       0x1c /tmp/ccxHBcHG.ltrans0.ltrans.o
                0x000000002000091c                default_heap.lto_priv.85
 .bss.heap1.lto_priv.194
                0x0000000020000938       0x1c /tmp/ccxHBcHG.ltrans0.ltrans.o
                0x0000000020000938                heap1.lto_priv.194
 .bss.mb_buffer.lto_priv.192
                0x0000000020000954       0x10 /tmp/ccxHBcHG.ltrans0.ltrans.o
                0x0000000020000954                mb_buffer.lto_priv.192
 .bss.mp1.lto_priv.193
                0x0000000020000964       0x10 /tmp/ccxHBcHG.ltrans0.ltrans.o
                0x0000000020000964                mp1.lto_priv.193
 .bss.sem1.lto_priv.205
                0x0000000020000974        0xc /tmp/ccxHBcHG.ltrans0.ltrans.o
                0x0000000020000974                sem1.lto_priv.205
 .bss.test_chp.lto_priv.208
                0x0000000020000980        0x4 /tmp/ccxHBcHG.ltrans0.ltrans.o
                0x0000000020000980                test_chp.lto_priv.208
 .bss.test_failure_message.lto_priv.207
                0x0000000020000984        0x4 /tmp/ccxHBcHG.ltrans0.ltrans.o
                0x0000000020000984                test_failure_message.lto_priv.207
 .bss.test_global_fail
                0x0000000020000988        0x1 /tmp/ccxHBcHG.ltrans0.ltrans.o
                0x0000000020000988                test_global_fail
 .bss.test_local_fail.lto_priv.206
                0x0000000020000989        0x1 /tmp/ccxHBcHG.ltrans0.ltrans.o
                0x0000000020000989                test_local_fail.lto_priv.206
 *fill*         0x000000002000098a        0x2 
 .bss.test_step
                0x000000002000098c        0x4 /tmp/ccxHBcHG.ltrans0.ltrans.o
                0x000000002000098c                test_step
 .bss.test_tokens_buffer.lto_priv.210
                0x0000000020000990       0x10 /tmp/ccxHBcHG.ltrans0.ltrans.o
                0x0000000020000990                test_tokens_buffer.lto_priv.210
 .bss.test_tokp.lto_priv.209
                0x00000000200009a0        0x4 /tmp/ccxHBcHG.ltrans0.ltrans.o
                0x00000000200009a0                test_tokp.lto_priv.209
 .bss.objects   0x00000000200009a4       0x10 /tmp/ccxHBcHG.ltrans3.ltrans.o
 .bss.test_heap
                0x00000000200009b4       0x1c /tmp/ccxHBcHG.ltrans3.ltrans.o
 .bss.test_heap_buffer
                0x00000000200009d0       0x80 /tmp/ccxHBcHG.ltrans3.ltrans.o
 .bss.mtx1      0x0000000020000a50       0x10 /tmp/ccxHBcHG.ltrans4.ltrans.o
 .bss.sem1      0x0000000020000a60        0xc /tmp/ccxHBcHG.ltrans4.ltrans.o
 *fill*         0x0000000020000a6c        0x4 
 .bss.test_buffer
                0x0000000020000a70      0x668 /tmp/ccxHBcHG.ltrans4.ltrans.o
                0x0000000020000a70                test_buffer
 .bss.threads   0x00000000200010d8       0x14 /tmp/ccxHBcHG.ltrans4.ltrans.o
                0x00000000200010d8                threads
 .bss.vt1.8218  0x00000000200010ec       0x14 /tmp/ccxHBcHG.ltrans4.ltrans.o
 .bss.vt2.8219  0x0000000020001100       0x14 /tmp/ccxHBcHG.ltrans4.ltrans.o
 .bss._pal_events
                0x0000000020001114      0x100 /tmp/ccxHBcHG.ltrans6.ltrans.o
                0x0000000020001114                _pal_events
 *fill*         0x0000000020001214        0x4 
 .bss.ch_idle_thread_wa
                0x0000000020001218       0xd8 /tmp/ccxHBcHG.ltrans6.ltrans.o
 .bss.ch_memcore
                0x00000000200012f0        0x8 /tmp/ccxHBcHG.ltrans6.ltrans.o
                0x00000000200012f0                ch_memcore
 .bss.sd_in_buf1
                0x00000000200012f8       0x10 /tmp/ccxHBcHG.ltrans6.ltrans.o
 .bss.sd_out_buf1
                0x0000000020001308       0x10 /tmp/ccxHBcHG.ltrans6.ltrans.o
 .bss.waThread1
                0x0000000020001318      0x148 /tmp/ccxHBcHG.ltrans6.ltrans.o
 .bss.tr1       0x0000000020001460        0x4 /tmp/ccxHBcHG.ltrans9.ltrans.o
 *(COMMON)
                0x0000000020001464                . = ALIGN (0x4)
                0x0000000020001464                _bss_end = .
                [!provide]                        PROVIDE (end, .)

.ram0_init      0x000000002002008c        0x0 load address 0x0000000008009ff4
                0x000000002002008c                . = ALIGN (0x4)
                0x0000000008009ff4                __ram0_init_text__ = LOADADDR (.ram0_init)
                0x000000002002008c                __ram0_init__ = .
 *(.ram0_init)
 *(.ram0_init.*)
                0x000000002002008c                . = ALIGN (0x4)

.ram0           0x000000002002008c        0x0 load address 0x0000000008009ff4
                0x000000002002008c                . = ALIGN (0x4)
                0x000000002002008c                __ram0_clear__ = .
 *(.ram0_clear)
 *(.ram0_clear.*)
                0x000000002002008c                . = ALIGN (0x4)
                0x000000002002008c                __ram0_noinit__ = .
 *(.ram0)
 *(.ram0.*)
                0x000000002002008c                . = ALIGN (0x4)
                0x000000002002008c                __ram0_free__ = .

.ram1_init      0x0000000020020000        0x0 load address 0x0000000008009ff4
                0x0000000020020000                . = ALIGN (0x4)
                0x0000000008009ff4                __ram1_init_text__ = LOADADDR (.ram1_init)
                0x0000000020020000                __ram1_init__ = .
 *(.ram1_init)
 *(.ram1_init.*)
                0x0000000020020000                . = ALIGN (0x4)

.ram1           0x0000000020020000        0x0 load address 0x0000000008009ff4
                0x0000000020020000                . = ALIGN (0x4)
                0x0000000020020000                __ram1_clear__ = .
 *(.ram1_clear)
 *(.ram1_clear.*)
                0x0000000020020000                . = ALIGN (0x4)
                0x0000000020020000                __ram1_noinit__ = .
 *(.ram1)
 *(.ram1.*)
                0x0000000020020000                . = ALIGN (0x4)
                0x0000000020020000                __ram1_free__ = .

.ram2_init      0x000000002007c000        0x0 load address 0x0000000008009ff4
                0x000000002007c000                . = ALIGN (0x4)
                0x0000000008009ff4                __ram2_init_text__ = LOADADDR (.ram2_init)
                0x000000002007c000                __ram2_init__ = .
 *(.ram2_init)
 *(.ram2_init.*)
                0x000000002007c000                . = ALIGN (0x4)

.ram2           0x000000002007c000        0x0 load address 0x0000000008009ff4
                0x000000002007c000                . = ALIGN (0x4)
                0x000000002007c000                __ram2_clear__ = .
 *(.ram2_clear)
 *(.ram2_clear.*)
                0x000000002007c000                . = ALIGN (0x4)
                0x000000002007c000                __ram2_noinit__ = .
 *(.ram2)
 *(.ram2.*)
                0x000000002007c000                . = ALIGN (0x4)
                0x000000002007c000                __ram2_free__ = .

.ram3_init      0x0000000020001464        0x0 load address 0x0000000008009ff4
                0x0000000020001464                . = ALIGN (0x4)
                0x0000000008009ff4                __ram3_init_text__ = LOADADDR (.ram3_init)
                0x0000000020001464                __ram3_init__ = .
 *(.ram3_init)
 *(.ram3_init.*)
                0x0000000020001464                . = ALIGN (0x4)

.ram3           0x0000000020001464        0x0 load address 0x0000000008009ff4
                0x0000000020001464                . = ALIGN (0x4)
                0x0000000020001464                __ram3_clear__ = .
 *(.ram3_clear)
 *(.ram3_clear.*)
                0x0000000020001464                . = ALIGN (0x4)
                0x0000000020001464                __ram3_noinit__ = .
 *(.ram3)
 *(.ram3.*)
                0x0000000020001464                . = ALIGN (0x4)
                0x0000000020001464                __ram3_free__ = .

.ram4_init      0x0000000000000000        0x0 load address 0x0000000008009ff4
                0x0000000000000000                . = ALIGN (0x4)
                0x0000000008009ff4                __ram4_init_text__ = LOADADDR (.ram4_init)
                0x0000000000000000                __ram4_init__ = .
 *(.ram4_init)
 *(.ram4_init.*)
                0x0000000000000000                . = ALIGN (0x4)

.ram4           0x0000000000000000        0x0 load address 0x0000000008009ff4
                0x0000000000000000                . = ALIGN (0x4)
                0x0000000000000000                __ram4_clear__ = .
 *(.ram4_clear)
 *(.ram4_clear.*)
                0x0000000000000000                . = ALIGN (0x4)
                0x0000000000000000                __ram4_noinit__ = .
 *(.ram4)
 *(.ram4.*)
                0x0000000000000000                . = ALIGN (0x4)
                0x0000000000000000                __ram4_free__ = .

.ram5_init      0x0000000040024000        0x0 load address 0x0000000008009ff4
                0x0000000040024000                . = ALIGN (0x4)
                0x0000000008009ff4                __ram5_init_text__ = LOADADDR (.ram5_init)
                0x0000000040024000                __ram5_init__ = .
 *(.ram5_init)
 *(.ram5_init.*)
                0x0000000040024000                . = ALIGN (0x4)

.ram5           0x0000000040024000        0x0 load address 0x0000000008009ff4
                0x0000000040024000                . = ALIGN (0x4)
                0x0000000040024000                __ram5_clear__ = .
 *(.ram5_clear)
 *(.ram5_clear.*)
                0x0000000040024000                . = ALIGN (0x4)
                0x0000000040024000                __ram5_noinit__ = .
 *(.ram5)
 *(.ram5.*)
                0x0000000040024000                . = ALIGN (0x4)
                0x0000000040024000                __ram5_free__ = .

.ram6_init      0x0000000000000000        0x0 load address 0x0000000008009ff4
                0x0000000000000000                . = ALIGN (0x4)
                0x0000000008009ff4                __ram6_init_text__ = LOADADDR (.ram6_init)
                0x0000000000000000                __ram6_init__ = .
 *(.ram6_init)
 *(.ram6_init.*)
                0x0000000000000000                . = ALIGN (0x4)

.ram6           0x0000000000000000        0x0 load address 0x0000000008009ff4
                0x0000000000000000                . = ALIGN (0x4)
                0x0000000000000000                __ram6_clear__ = .
 *(.ram6_clear)
 *(.ram6_clear.*)
                0x0000000000000000                . = ALIGN (0x4)
                0x0000000000000000                __ram6_noinit__ = .
 *(.ram6)
 *(.ram6.*)
                0x0000000000000000                . = ALIGN (0x4)
                0x0000000000000000                __ram6_free__ = .

.ram7_init      0x0000000000000000        0x0 load address 0x0000000008009ff4
                0x0000000000000000                . = ALIGN (0x4)
                0x0000000008009ff4                __ram7_init_text__ = LOADADDR (.ram7_init)
                0x0000000000000000                __ram7_init__ = .
 *(.ram7_init)
 *(.ram7_init.*)
                0x0000000000000000                . = ALIGN (0x4)

.ram7           0x0000000000000000        0x0 load address 0x0000000008009ff4
                0x0000000000000000                . = ALIGN (0x4)
                0x0000000000000000                __ram7_clear__ = .
 *(.ram7_clear)
 *(.ram7_clear.*)
                0x0000000000000000                . = ALIGN (0x4)
                0x0000000000000000                __ram7_noinit__ = .
 *(.ram7)
 *(.ram7.*)
                0x0000000000000000                . = ALIGN (0x4)
                0x0000000000000000                __ram7_free__ = .

.heap           0x000000002002008c    0x5ff74
                0x0000000020020090                . = ALIGN (0x8)
 *fill*         0x000000002002008c        0x4 
                0x0000000020020090                __heap_base__ = .
                0x0000000020080000                . = (ORIGIN (HEAP_RAM) + LENGTH (HEAP_RAM))
 *fill*         0x0000000020020090    0x5ff70 
                0x0000000020080000                __heap_end__ = .
                0x0000000000000400                __process_stack_size__ = 0x400
                0x0000000000000400                __main_stack_size__ = 0x400
START GROUP
LOAD /home/ksg/bin/gcc-arm/gcc-arm-none-eabi-6-2017-q2-update/bin/../lib/gcc/arm-none-eabi/6.3.1/thumb/v7e-m/libgcc.a
LOAD /home/ksg/bin/gcc-arm/gcc-arm-none-eabi-6-2017-q2-update/bin/../lib/gcc/arm-none-eabi/6.3.1/../../../../arm-none-eabi/lib/thumb/v7e-m/libg.a
LOAD /home/ksg/bin/gcc-arm/gcc-arm-none-eabi-6-2017-q2-update/bin/../lib/gcc/arm-none-eabi/6.3.1/../../../../arm-none-eabi/lib/thumb/v7e-m/libc.a
END GROUP
OUTPUT(build/ch.elf elf32-littlearm)

.ARM.attributes
                0x0000000000000000       0x2f
 .ARM.attributes
                0x0000000000000000       0x21 build/obj/crt0_v7m.o
 .ARM.attributes
                0x0000000000000021       0x21 build/obj/vectors.o
 .ARM.attributes
                0x0000000000000042       0x21 build/obj/chcoreasm_v7m.o
 .ARM.attributes
                0x0000000000000063       0x31 /tmp/ccxHBcHG.ltrans0.ltrans.o
 .ARM.attributes
                0x0000000000000094       0x31 /tmp/ccxHBcHG.ltrans1.ltrans.o
 .ARM.attributes
                0x00000000000000c5       0x31 /tmp/ccxHBcHG.ltrans2.ltrans.o
 .ARM.attributes
                0x00000000000000f6       0x31 /tmp/ccxHBcHG.ltrans3.ltrans.o
 .ARM.attributes
                0x0000000000000127       0x31 /tmp/ccxHBcHG.ltrans4.ltrans.o
 .ARM.attributes
                0x0000000000000158       0x31 /tmp/ccxHBcHG.ltrans5.ltrans.o
 .ARM.attributes
                0x0000000000000189       0x31 /tmp/ccxHBcHG.ltrans6.ltrans.o
 .ARM.attributes
                0x00000000000001ba       0x31 /tmp/ccxHBcHG.ltrans7.ltrans.o
 .ARM.attributes
                0x00000000000001eb       0x31 /tmp/ccxHBcHG.ltrans8.ltrans.o
 .ARM.attributes
                0x000000000000021c       0x31 /tmp/ccxHBcHG.ltrans9.ltrans.o
 .ARM.attributes
                0x000000000000024d       0x1c /home/ksg/bin/gcc-arm/gcc-arm-none-eabi-6-2017-q2-update/bin/../lib/gcc/arm-none-eabi/6.3.1/../../../../arm-none-eabi/lib/thumb/v7e-m/libg.a(lib_a-memcpy.o)
 .ARM.attributes
                0x0000000000000269       0x2e /home/ksg/bin/gcc-arm/gcc-arm-none-eabi-6-2017-q2-update/bin/../lib/gcc/arm-none-eabi/6.3.1/../../../../arm-none-eabi/lib/thumb/v7e-m/libg.a(lib_a-memset.o)
 .ARM.attributes
                0x0000000000000297       0x2e /home/ksg/bin/gcc-arm/gcc-arm-none-eabi-6-2017-q2-update/bin/../lib/gcc/arm-none-eabi/6.3.1/../../../../arm-none-eabi/lib/thumb/v7e-m/libg.a(lib_a-strncmp.o)
 .ARM.attributes
                0x00000000000002c5       0x2e /home/ksg/bin/gcc-arm/gcc-arm-none-eabi-6-2017-q2-update/bin/../lib/gcc/arm-none-eabi/6.3.1/../../../../arm-none-eabi/lib/thumb/v7e-m/libg.a(lib_a-strncpy.o)

.comment        0x0000000000000000       0x7f
 .comment       0x0000000000000000       0x7f /tmp/ccxHBcHG.ltrans0.ltrans.o
                                         0x80 (size before relaxing)
 .comment       0x000000000000007f       0x80 /tmp/ccxHBcHG.ltrans1.ltrans.o
 .comment       0x000000000000007f       0x80 /tmp/ccxHBcHG.ltrans2.ltrans.o
 .comment       0x000000000000007f       0x80 /tmp/ccxHBcHG.ltrans3.ltrans.o
 .comment       0x000000000000007f       0x80 /tmp/ccxHBcHG.ltrans4.ltrans.o
 .comment       0x000000000000007f       0x80 /tmp/ccxHBcHG.ltrans5.ltrans.o
 .comment       0x000000000000007f       0x80 /tmp/ccxHBcHG.ltrans6.ltrans.o
 .comment       0x000000000000007f       0x80 /tmp/ccxHBcHG.ltrans7.ltrans.o
 .comment       0x000000000000007f       0x80 /tmp/ccxHBcHG.ltrans8.ltrans.o
 .comment       0x000000000000007f       0x80 /tmp/ccxHBcHG.ltrans9.ltrans.o

.debug_line     0x0000000000000000     0x79ec
 .debug_line    0x0000000000000000       0xc5 build/obj/crt0_v7m.o
 .debug_line    0x00000000000000c5       0x6f build/obj/vectors.o
 .debug_line    0x0000000000000134       0x80 build/obj/chcoreasm_v7m.o
 .debug_line    0x00000000000001b4      0xfdd /tmp/ccxHBcHG.ltrans0.ltrans.o
 .debug_line    0x0000000000001191      0xb07 /tmp/ccxHBcHG.ltrans1.ltrans.o
 .debug_line    0x0000000000001c98      0x995 /tmp/ccxHBcHG.ltrans2.ltrans.o
 .debug_line    0x000000000000262d      0xa39 /tmp/ccxHBcHG.ltrans3.ltrans.o
 .debug_line    0x0000000000003066      0xc8e /tmp/ccxHBcHG.ltrans4.ltrans.o
 .debug_line    0x0000000000003cf4      0xae5 /tmp/ccxHBcHG.ltrans5.ltrans.o
 .debug_line    0x00000000000047d9      0xdf3 /tmp/ccxHBcHG.ltrans6.ltrans.o
 .debug_line    0x00000000000055cc      0xcdb /tmp/ccxHBcHG.ltrans7.ltrans.o
 .debug_line    0x00000000000062a7      0xef2 /tmp/ccxHBcHG.ltrans8.ltrans.o
 .debug_line    0x0000000000007199      0x853 /tmp/ccxHBcHG.ltrans9.ltrans.o

.debug_info     0x0000000000000000    0x1edca
 .debug_info    0x0000000000000000       0xc6 build/obj/crt0_v7m.o
 .debug_info    0x00000000000000c6       0xc5 build/obj/vectors.o
 .debug_info    0x000000000000018b       0xc9 build/obj/chcoreasm_v7m.o
 .debug_info    0x0000000000000254     0x4164 /tmp/ccxHBcHG.ltrans0.ltrans.o
 .debug_info    0x00000000000043b8     0x2d2a /tmp/ccxHBcHG.ltrans1.ltrans.o
 .debug_info    0x00000000000070e2     0x2d80 /tmp/ccxHBcHG.ltrans2.ltrans.o
 .debug_info    0x0000000000009e62     0x3014 /tmp/ccxHBcHG.ltrans3.ltrans.o
 .debug_info    0x000000000000ce76     0x2fb8 /tmp/ccxHBcHG.ltrans4.ltrans.o
 .debug_info    0x000000000000fe2e     0x2dd6 /tmp/ccxHBcHG.ltrans5.ltrans.o
 .debug_info    0x0000000000012c04     0x303d /tmp/ccxHBcHG.ltrans6.ltrans.o
 .debug_info    0x0000000000015c41     0x3ac0 /tmp/ccxHBcHG.ltrans7.ltrans.o
 .debug_info    0x0000000000019701     0x3258 /tmp/ccxHBcHG.ltrans8.ltrans.o
 .debug_info    0x000000000001c959     0x2471 /tmp/ccxHBcHG.ltrans9.ltrans.o

.debug_abbrev   0x0000000000000000     0x2f78
 .debug_abbrev  0x0000000000000000       0x14 build/obj/crt0_v7m.o
 .debug_abbrev  0x0000000000000014       0x14 build/obj/vectors.o
 .debug_abbrev  0x0000000000000028       0x14 build/obj/chcoreasm_v7m.o
 .debug_abbrev  0x000000000000003c      0x495 /tmp/ccxHBcHG.ltrans0.ltrans.o
 .debug_abbrev  0x00000000000004d1      0x473 /tmp/ccxHBcHG.ltrans1.ltrans.o
 .debug_abbrev  0x0000000000000944      0x5a4 /tmp/ccxHBcHG.ltrans2.ltrans.o
 .debug_abbrev  0x0000000000000ee8      0x40e /tmp/ccxHBcHG.ltrans3.ltrans.o
 .debug_abbrev  0x00000000000012f6      0x445 /tmp/ccxHBcHG.ltrans4.ltrans.o
 .debug_abbrev  0x000000000000173b      0x40c /tmp/ccxHBcHG.ltrans5.ltrans.o
 .debug_abbrev  0x0000000000001b47      0x4b3 /tmp/ccxHBcHG.ltrans6.ltrans.o
 .debug_abbrev  0x0000000000001ffa      0x55f /tmp/ccxHBcHG.ltrans7.ltrans.o
 .debug_abbrev  0x0000000000002559      0x5c6 /tmp/ccxHBcHG.ltrans8.ltrans.o
 .debug_abbrev  0x0000000000002b1f      0x459 /tmp/ccxHBcHG.ltrans9.ltrans.o

.debug_aranges  0x0000000000000000      0x8d8
 .debug_aranges
                0x0000000000000000       0x20 build/obj/crt0_v7m.o
 .debug_aranges
                0x0000000000000020       0x20 build/obj/vectors.o
 .debug_aranges
                0x0000000000000040       0x20 build/obj/chcoreasm_v7m.o
 .debug_aranges
                0x0000000000000060      0x130 /tmp/ccxHBcHG.ltrans0.ltrans.o
 .debug_aranges
                0x0000000000000190       0xd0 /tmp/ccxHBcHG.ltrans1.ltrans.o
 .debug_aranges
                0x0000000000000260       0xf8 /tmp/ccxHBcHG.ltrans2.ltrans.o
 .debug_aranges
                0x0000000000000358       0x90 /tmp/ccxHBcHG.ltrans3.ltrans.o
 .debug_aranges
                0x00000000000003e8       0xe0 /tmp/ccxHBcHG.ltrans4.ltrans.o
 .debug_aranges
                0x00000000000004c8       0xe0 /tmp/ccxHBcHG.ltrans5.ltrans.o
 .debug_aranges
                0x00000000000005a8       0x68 /tmp/ccxHBcHG.ltrans6.ltrans.o
 .debug_aranges
                0x0000000000000610       0xf8 /tmp/ccxHBcHG.ltrans7.ltrans.o
 .debug_aranges
                0x0000000000000708      0x150 /tmp/ccxHBcHG.ltrans8.ltrans.o
 .debug_aranges
                0x0000000000000858       0x80 /tmp/ccxHBcHG.ltrans9.ltrans.o

.debug_loc      0x0000000000000000     0x94ef
 .debug_loc     0x0000000000000000     0x1c2e /tmp/ccxHBcHG.ltrans0.ltrans.o
 .debug_loc     0x0000000000001c2e      0xc3e /tmp/ccxHBcHG.ltrans1.ltrans.o
 .debug_loc     0x000000000000286c      0xe2a /tmp/ccxHBcHG.ltrans2.ltrans.o
 .debug_loc     0x0000000000003696      0xd4b /tmp/ccxHBcHG.ltrans3.ltrans.o
 .debug_loc     0x00000000000043e1      0x99c /tmp/ccxHBcHG.ltrans4.ltrans.o
 .debug_loc     0x0000000000004d7d      0xa5b /tmp/ccxHBcHG.ltrans5.ltrans.o
 .debug_loc     0x00000000000057d8      0x68c /tmp/ccxHBcHG.ltrans6.ltrans.o
 .debug_loc     0x0000000000005e64     0x17f0 /tmp/ccxHBcHG.ltrans7.ltrans.o
 .debug_loc     0x0000000000007654     0x186e /tmp/ccxHBcHG.ltrans8.ltrans.o
 .debug_loc     0x0000000000008ec2      0x62d /tmp/ccxHBcHG.ltrans9.ltrans.o

.debug_ranges   0x0000000000000000     0x3c88
 .debug_ranges  0x0000000000000000      0x6c0 /tmp/ccxHBcHG.ltrans0.ltrans.o
 .debug_ranges  0x00000000000006c0      0x6b8 /tmp/ccxHBcHG.ltrans1.ltrans.o
 .debug_ranges  0x0000000000000d78      0x3b8 /tmp/ccxHBcHG.ltrans2.ltrans.o
 .debug_ranges  0x0000000000001130      0x608 /tmp/ccxHBcHG.ltrans3.ltrans.o
 .debug_ranges  0x0000000000001738      0x638 /tmp/ccxHBcHG.ltrans4.ltrans.o
 .debug_ranges  0x0000000000001d70      0x518 /tmp/ccxHBcHG.ltrans5.ltrans.o
 .debug_ranges  0x0000000000002288      0xa30 /tmp/ccxHBcHG.ltrans6.ltrans.o
 .debug_ranges  0x0000000000002cb8      0x588 /tmp/ccxHBcHG.ltrans7.ltrans.o
 .debug_ranges  0x0000000000003240      0x6f0 /tmp/ccxHBcHG.ltrans8.ltrans.o
 .debug_ranges  0x0000000000003930      0x358 /tmp/ccxHBcHG.ltrans9.ltrans.o

.debug_str      0x0000000000000000     0x4990
 .debug_str     0x0000000000000000     0x151b /tmp/ccxHBcHG.ltrans0.ltrans.o
                                       0x1679 (size before relaxing)
 .debug_str     0x000000000000151b      0x673 /tmp/ccxHBcHG.ltrans1.ltrans.o
                                        0xbf9 (size before relaxing)
 .debug_str     0x0000000000001b8e      0x4e2 /tmp/ccxHBcHG.ltrans2.ltrans.o
                                        0xc00 (size before relaxing)
 .debug_str     0x0000000000002070      0x516 /tmp/ccxHBcHG.ltrans3.ltrans.o
                                        0xbff (size before relaxing)
 .debug_str     0x0000000000002586      0x4f6 /tmp/ccxHBcHG.ltrans4.ltrans.o
                                        0xb5e (size before relaxing)
 .debug_str     0x0000000000002a7c      0x5b2 /tmp/ccxHBcHG.ltrans5.ltrans.o
                                        0xb51 (size before relaxing)
 .debug_str     0x000000000000302e      0xc8b /tmp/ccxHBcHG.ltrans6.ltrans.o
                                       0x157a (size before relaxing)
 .debug_str     0x0000000000003cb9      0x449 /tmp/ccxHBcHG.ltrans7.ltrans.o
                                        0xb1b (size before relaxing)
 .debug_str     0x0000000000004102      0x492 /tmp/ccxHBcHG.ltrans8.ltrans.o
                                        0xce9 (size before relaxing)
 .debug_str     0x0000000000004594      0x3fc /tmp/ccxHBcHG.ltrans9.ltrans.o
                                        0x9e3 (size before relaxing)

.debug_frame    0x0000000000000000     0x1f08
 .debug_frame   0x0000000000000000      0x410 /tmp/ccxHBcHG.ltrans0.ltrans.o
 .debug_frame   0x0000000000000410      0x334 /tmp/ccxHBcHG.ltrans1.ltrans.o
 .debug_frame   0x0000000000000744      0x364 /tmp/ccxHBcHG.ltrans2.ltrans.o
 .debug_frame   0x0000000000000aa8      0x200 /tmp/ccxHBcHG.ltrans3.ltrans.o
 .debug_frame   0x0000000000000ca8      0x3ac /tmp/ccxHBcHG.ltrans4.ltrans.o
 .debug_frame   0x0000000000001054      0x39c /tmp/ccxHBcHG.ltrans5.ltrans.o
 .debug_frame   0x00000000000013f0      0x154 /tmp/ccxHBcHG.ltrans6.ltrans.o
 .debug_frame   0x0000000000001544      0x308 /tmp/ccxHBcHG.ltrans7.ltrans.o
 .debug_frame   0x000000000000184c      0x474 /tmp/ccxHBcHG.ltrans8.ltrans.o
 .debug_frame   0x0000000000001cc0      0x18c /tmp/ccxHBcHG.ltrans9.ltrans.o
 .debug_frame   0x0000000000001e4c       0x34 /home/ksg/bin/gcc-arm/gcc-arm-none-eabi-6-2017-q2-update/bin/../lib/gcc/arm-none-eabi/6.3.1/../../../../arm-none-eabi/lib/thumb/v7e-m/libg.a(lib_a-memset.o)
 .debug_frame   0x0000000000001e80       0x54 /home/ksg/bin/gcc-arm/gcc-arm-none-eabi-6-2017-q2-update/bin/../lib/gcc/arm-none-eabi/6.3.1/../../../../arm-none-eabi/lib/thumb/v7e-m/libg.a(lib_a-strncmp.o)
 .debug_frame   0x0000000000001ed4       0x34 /home/ksg/bin/gcc-arm/gcc-arm-none-eabi-6-2017-q2-update/bin/../lib/gcc/arm-none-eabi/6.3.1/../../../../arm-none-eabi/lib/thumb/v7e-m/libg.a(lib_a-strncpy.o)

Cross Reference Table

Symbol                                            File
BusFault_Handler                                  build/obj/vectors.o
DebugMon_Handler                                  build/obj/vectors.o
HardFault_Handler                                 build/obj/vectors.o
MemManage_Handler                                 build/obj/vectors.o
NMI_Handler                                       build/obj/vectors.o
PendSV_Handler                                    build/obj/vectors.o
Reset_Handler                                     build/obj/vectors.o
SD1                                               /tmp/ccxHBcHG.ltrans0.ltrans.o
                                                  build/obj/hal_serial_lld.o (symbol from plugin)
                                                  /tmp/ccxHBcHG.ltrans7.ltrans.o
                                                  /tmp/ccxHBcHG.ltrans6.ltrans.o
                                                  build/obj/main.o (symbol from plugin)
SVC_Handler                                       /tmp/ccxHBcHG.ltrans2.ltrans.o
                                                  build/obj/chcore_v7m.o (symbol from plugin)
                                                  build/obj/vectors.o
SysTick_Handler                                   build/obj/vectors.o
SystemCoreClock                                   build/obj/hal_lld.o (symbol from plugin)
UsageFault_Handler                                build/obj/vectors.o
Vector100                                         build/obj/vectors.o
Vector104                                         build/obj/vectors.o
Vector108                                         build/obj/vectors.o
Vector10C                                         build/obj/vectors.o
Vector110                                         build/obj/vectors.o
Vector114                                         build/obj/vectors.o
Vector118                                         build/obj/vectors.o
Vector11C                                         build/obj/vectors.o
Vector120                                         build/obj/vectors.o
Vector124                                         build/obj/vectors.o
Vector128                                         build/obj/vectors.o
Vector12C                                         build/obj/vectors.o
Vector130                                         build/obj/vectors.o
Vector134                                         build/obj/vectors.o
Vector138                                         build/obj/vectors.o
Vector13C                                         build/obj/vectors.o
Vector140                                         build/obj/vectors.o
Vector144                                         build/obj/vectors.o
Vector148                                         build/obj/vectors.o
Vector14C                                         build/obj/vectors.o
Vector150                                         build/obj/vectors.o
Vector154                                         build/obj/vectors.o
Vector158                                         build/obj/vectors.o
Vector15C                                         build/obj/vectors.o
Vector160                                         build/obj/vectors.o
Vector164                                         build/obj/vectors.o
Vector168                                         build/obj/vectors.o
Vector16C                                         build/obj/vectors.o
Vector170                                         build/obj/vectors.o
Vector174                                         build/obj/vectors.o
Vector178                                         build/obj/vectors.o
Vector17C                                         build/obj/vectors.o
Vector180                                         build/obj/vectors.o
Vector184                                         build/obj/vectors.o
Vector188                                         build/obj/vectors.o
Vector18C                                         build/obj/vectors.o
Vector190                                         build/obj/vectors.o
Vector194                                         build/obj/vectors.o
Vector198                                         build/obj/vectors.o
Vector19C                                         build/obj/vectors.o
Vector1A0                                         build/obj/vectors.o
Vector1A4                                         build/obj/vectors.o
Vector1A8                                         build/obj/vectors.o
Vector1AC                                         build/obj/vectors.o
Vector1B0                                         build/obj/vectors.o
Vector1B4                                         build/obj/vectors.o
Vector1B8                                         build/obj/vectors.o
Vector1BC                                         build/obj/vectors.o
Vector1C                                          build/obj/vectors.o
Vector1C0                                         build/obj/vectors.o
Vector1C4                                         build/obj/vectors.o
Vector1C8                                         build/obj/vectors.o
Vector1CC                                         build/obj/vectors.o
Vector1D0                                         build/obj/vectors.o
Vector1D4                                         build/obj/vectors.o
Vector1D8                                         build/obj/vectors.o
Vector1DC                                         build/obj/vectors.o
Vector1E0                                         build/obj/vectors.o
Vector1E4                                         build/obj/vectors.o
Vector1E8                                         build/obj/vectors.o
Vector1EC                                         build/obj/vectors.o
Vector1F0                                         build/obj/vectors.o
Vector1F4                                         build/obj/vectors.o
Vector1F8                                         build/obj/vectors.o
Vector1FC                                         build/obj/vectors.o
Vector20                                          build/obj/vectors.o
Vector24                                          build/obj/vectors.o
Vector28                                          build/obj/vectors.o
Vector34                                          build/obj/vectors.o
Vector40                                          build/obj/vectors.o
Vector44                                          build/obj/vectors.o
Vector48                                          build/obj/vectors.o
Vector4C                                          build/obj/vectors.o
Vector50                                          build/obj/vectors.o
Vector54                                          build/obj/vectors.o
Vector58                                          /tmp/ccxHBcHG.ltrans7.ltrans.o
                                                  build/obj/stm32_isr.o (symbol from plugin)
                                                  build/obj/vectors.o
Vector5C                                          /tmp/ccxHBcHG.ltrans7.ltrans.o
                                                  build/obj/stm32_isr.o (symbol from plugin)
                                                  build/obj/vectors.o
Vector60                                          /tmp/ccxHBcHG.ltrans7.ltrans.o
                                                  build/obj/stm32_isr.o (symbol from plugin)
                                                  build/obj/vectors.o
Vector64                                          /tmp/ccxHBcHG.ltrans7.ltrans.o
                                                  build/obj/stm32_isr.o (symbol from plugin)
                                                  build/obj/vectors.o
Vector68                                          /tmp/ccxHBcHG.ltrans7.ltrans.o
                                                  build/obj/stm32_isr.o (symbol from plugin)
                                                  build/obj/vectors.o
Vector6C                                          build/obj/vectors.o
Vector70                                          build/obj/vectors.o
Vector74                                          build/obj/vectors.o
Vector78                                          build/obj/vectors.o
Vector7C                                          build/obj/vectors.o
Vector80                                          build/obj/vectors.o
Vector84                                          build/obj/vectors.o
Vector88                                          build/obj/vectors.o
Vector8C                                          build/obj/vectors.o
Vector90                                          build/obj/vectors.o
Vector94                                          build/obj/vectors.o
Vector98                                          build/obj/vectors.o
Vector9C                                          /tmp/ccxHBcHG.ltrans7.ltrans.o
                                                  build/obj/stm32_isr.o (symbol from plugin)
                                                  build/obj/vectors.o
VectorA0                                          build/obj/vectors.o
VectorA4                                          build/obj/vectors.o
VectorA8                                          build/obj/vectors.o
VectorAC                                          build/obj/vectors.o
VectorB0                                          /tmp/ccxHBcHG.ltrans7.ltrans.o
                                                  build/obj/hal_st_lld.o (symbol from plugin)
                                                  build/obj/vectors.o
VectorB4                                          build/obj/vectors.o
VectorB8                                          build/obj/vectors.o
VectorBC                                          build/obj/vectors.o
VectorC0                                          build/obj/vectors.o
VectorC4                                          build/obj/vectors.o
VectorC8                                          build/obj/vectors.o
VectorCC                                          build/obj/vectors.o
VectorD0                                          build/obj/vectors.o
VectorD4                                          /tmp/ccxHBcHG.ltrans7.ltrans.o
                                                  build/obj/hal_serial_lld.o (symbol from plugin)
                                                  build/obj/vectors.o
VectorD8                                          build/obj/vectors.o
VectorDC                                          build/obj/vectors.o
VectorE0                                          /tmp/ccxHBcHG.ltrans7.ltrans.o
                                                  build/obj/stm32_isr.o (symbol from plugin)
                                                  build/obj/vectors.o
VectorE4                                          build/obj/vectors.o
VectorE8                                          build/obj/vectors.o
VectorEC                                          build/obj/vectors.o
VectorF0                                          build/obj/vectors.o
VectorF4                                          build/obj/vectors.o
VectorF8                                          build/obj/vectors.o
VectorFC                                          build/obj/vectors.o
__core_init                                       /tmp/ccxHBcHG.ltrans7.ltrans.o
                                                  build/obj/crt1.o (symbol from plugin)
                                                  build/obj/crt0_v7m.o
__default_exit                                    /tmp/ccxHBcHG.ltrans7.ltrans.o
                                                  build/obj/crt1.o (symbol from plugin)
                                                  build/obj/crt0_v7m.o
__early_init                                      /tmp/ccxHBcHG.ltrans7.ltrans.o
                                                  build/obj/board.o (symbol from plugin)
                                                  build/obj/crt1.o (symbol from plugin)
                                                  build/obj/crt0_v7m.o
__fini_array_end                                  build/obj/crt0_v7m.o
__fini_array_start                                build/obj/crt0_v7m.o
__heap_base__                                     /tmp/ccxHBcHG.ltrans6.ltrans.o
                                                  build/obj/chmemcore.o (symbol from plugin)
__heap_end__                                      /tmp/ccxHBcHG.ltrans6.ltrans.o
                                                  build/obj/chmemcore.o (symbol from plugin)
__init_array_end                                  build/obj/crt0_v7m.o
__init_array_start                                build/obj/crt0_v7m.o
__init_ram_areas                                  /tmp/ccxHBcHG.ltrans7.ltrans.o
                                                  build/obj/crt1.o (symbol from plugin)
                                                  build/obj/crt0_v7m.o
__late_init                                       /tmp/ccxHBcHG.ltrans7.ltrans.o
                                                  build/obj/crt1.o (symbol from plugin)
                                                  build/obj/crt0_v7m.o
__main_stack_base__                               build/obj/crt0_v7m.o
__main_stack_end__                                build/obj/vectors.o
                                                  build/obj/crt0_v7m.o
__process_stack_base__                            build/obj/crt0_v7m.o
__process_stack_end__                             build/obj/crt0_v7m.o
__ram0_clear__                                    /tmp/ccxHBcHG.ltrans7.ltrans.o
                                                  build/obj/crt1.o (symbol from plugin)
__ram0_init__                                     /tmp/ccxHBcHG.ltrans7.ltrans.o
                                                  build/obj/crt1.o (symbol from plugin)
__ram0_init_text__                                /tmp/ccxHBcHG.ltrans7.ltrans.o
                                                  build/obj/crt1.o (symbol from plugin)
__ram0_noinit__                                   /tmp/ccxHBcHG.ltrans7.ltrans.o
                                                  build/obj/crt1.o (symbol from plugin)
__ram1_clear__                                    /tmp/ccxHBcHG.ltrans7.ltrans.o
                                                  build/obj/crt1.o (symbol from plugin)
__ram1_init__                                     /tmp/ccxHBcHG.ltrans7.ltrans.o
                                                  build/obj/crt1.o (symbol from plugin)
__ram1_init_text__                                /tmp/ccxHBcHG.ltrans7.ltrans.o
                                                  build/obj/crt1.o (symbol from plugin)
__ram1_noinit__                                   /tmp/ccxHBcHG.ltrans7.ltrans.o
                                                  build/obj/crt1.o (symbol from plugin)
__ram2_clear__                                    /tmp/ccxHBcHG.ltrans7.ltrans.o
                                                  build/obj/crt1.o (symbol from plugin)
__ram2_init__                                     /tmp/ccxHBcHG.ltrans7.ltrans.o
                                                  build/obj/crt1.o (symbol from plugin)
__ram2_init_text__                                /tmp/ccxHBcHG.ltrans7.ltrans.o
                                                  build/obj/crt1.o (symbol from plugin)
__ram2_noinit__                                   /tmp/ccxHBcHG.ltrans7.ltrans.o
                                                  build/obj/crt1.o (symbol from plugin)
__ram3_clear__                                    /tmp/ccxHBcHG.ltrans7.ltrans.o
                                                  build/obj/crt1.o (symbol from plugin)
__ram3_init__                                     /tmp/ccxHBcHG.ltrans7.ltrans.o
                                                  build/obj/crt1.o (symbol from plugin)
__ram3_init_text__                                /tmp/ccxHBcHG.ltrans7.ltrans.o
                                                  build/obj/crt1.o (symbol from plugin)
__ram3_noinit__                                   /tmp/ccxHBcHG.ltrans7.ltrans.o
                                                  build/obj/crt1.o (symbol from plugin)
__ram4_clear__                                    /tmp/ccxHBcHG.ltrans7.ltrans.o
                                                  build/obj/crt1.o (symbol from plugin)
__ram4_init__                                     /tmp/ccxHBcHG.ltrans7.ltrans.o
                                                  build/obj/crt1.o (symbol from plugin)
__ram4_init_text__                                /tmp/ccxHBcHG.ltrans7.ltrans.o
                                                  build/obj/crt1.o (symbol from plugin)
__ram4_noinit__                                   /tmp/ccxHBcHG.ltrans7.ltrans.o
                                                  build/obj/crt1.o (symbol from plugin)
__ram5_clear__                                    /tmp/ccxHBcHG.ltrans7.ltrans.o
                                                  build/obj/crt1.o (symbol from plugin)
__ram5_init__                                     /tmp/ccxHBcHG.ltrans7.ltrans.o
                                                  build/obj/crt1.o (symbol from plugin)
__ram5_init_text__                                /tmp/ccxHBcHG.ltrans7.ltrans.o
                                                  build/obj/crt1.o (symbol from plugin)
__ram5_noinit__                                   /tmp/ccxHBcHG.ltrans7.ltrans.o
                                                  build/obj/crt1.o (symbol from plugin)
__ram6_clear__                                    /tmp/ccxHBcHG.ltrans7.ltrans.o
                                                  build/obj/crt1.o (symbol from plugin)
__ram6_init__                                     /tmp/ccxHBcHG.ltrans7.ltrans.o
                                                  build/obj/crt1.o (symbol from plugin)
__ram6_init_text__                                /tmp/ccxHBcHG.ltrans7.ltrans.o
                                                  build/obj/crt1.o (symbol from plugin)
__ram6_noinit__                                   /tmp/ccxHBcHG.ltrans7.ltrans.o
                                                  build/obj/crt1.o (symbol from plugin)
__ram7_clear__                                    /tmp/ccxHBcHG.ltrans7.ltrans.o
                                                  build/obj/crt1.o (symbol from plugin)
__ram7_init__                                     /tmp/ccxHBcHG.ltrans7.ltrans.o
                                                  build/obj/crt1.o (symbol from plugin)
__ram7_init_text__                                /tmp/ccxHBcHG.ltrans7.ltrans.o
                                                  build/obj/crt1.o (symbol from plugin)
__ram7_noinit__                                   /tmp/ccxHBcHG.ltrans7.ltrans.o
                                                  build/obj/crt1.o (symbol from plugin)
_bss_end                                          build/obj/crt0_v7m.o
_bss_start                                        build/obj/crt0_v7m.o
_core_init                                        build/obj/chmemcore.o (symbol from plugin)
                                                  build/obj/chsys.o (symbol from plugin)
_crt0_entry                                       build/obj/crt0_v7m.o
                                                  build/obj/vectors.o
_ctl.lto_priv.96                                  /tmp/ccxHBcHG.ltrans7.ltrans.o
                                                  /tmp/ccxHBcHG.ltrans6.ltrans.o
_data_end                                         build/obj/crt0_v7m.o
_data_start                                       build/obj/crt0_v7m.o
_factory_init                                     build/obj/chfactory.o (symbol from plugin)
                                                  build/obj/chsys.o (symbol from plugin)
_get.lto_priv.91                                  /tmp/ccxHBcHG.ltrans7.ltrans.o
                                                  /tmp/ccxHBcHG.ltrans6.ltrans.o
_gett.lto_priv.93                                 /tmp/ccxHBcHG.ltrans7.ltrans.o
                                                  /tmp/ccxHBcHG.ltrans6.ltrans.o
_heap_init                                        build/obj/chheap.o (symbol from plugin)
                                                  build/obj/chsys.o (symbol from plugin)
_idle_thread.lto_priv.87                          /tmp/ccxHBcHG.ltrans8.ltrans.o
                                                  /tmp/ccxHBcHG.ltrans6.ltrans.o
_pal_events                                       /tmp/ccxHBcHG.ltrans6.ltrans.o
                                                  build/obj/hal_pal_lld.o (symbol from plugin)
                                                  /tmp/ccxHBcHG.ltrans7.ltrans.o
                                                  build/obj/stm32_isr.o (symbol from plugin)
                                                  build/obj/hal_pal.o (symbol from plugin)
_pal_lld_disablepadevent                          build/obj/hal_pal_lld.o (symbol from plugin)
_pal_lld_enablepadevent                           build/obj/hal_pal_lld.o (symbol from plugin)
_pal_lld_init                                     build/obj/hal_pal_lld.o (symbol from plugin)
                                                  build/obj/hal.o (symbol from plugin)
_pal_lld_setgroupmode                             build/obj/hal_pal_lld.o (symbol from plugin)
                                                  build/obj/main.o (symbol from plugin)
                                                  build/obj/hal_pal.o (symbol from plugin)
_port_exit_from_isr                               build/obj/chcoreasm_v7m.o
                                                  /tmp/ccxHBcHG.ltrans2.ltrans.o
                                                  build/obj/chcore_v7m.o (symbol from plugin)
_port_irq_epilogue                                /tmp/ccxHBcHG.ltrans2.ltrans.o
                                                  build/obj/chcore_v7m.o (symbol from plugin)
                                                  /tmp/ccxHBcHG.ltrans7.ltrans.o
                                                  build/obj/hal_serial_lld.o (symbol from plugin)
                                                  build/obj/hal_st_lld.o (symbol from plugin)
                                                  build/obj/stm32_isr.o (symbol from plugin)
_port_switch                                      build/obj/chcoreasm_v7m.o
                                                  /tmp/ccxHBcHG.ltrans8.ltrans.o
                                                  build/obj/chschd.o (symbol from plugin)
_port_switch_from_isr                             build/obj/chcoreasm_v7m.o
                                                  /tmp/ccxHBcHG.ltrans2.ltrans.o
                                                  build/obj/chcore_v7m.o (symbol from plugin)
_port_thread_start                                build/obj/chcoreasm_v7m.o
                                                  /tmp/ccxHBcHG.ltrans8.ltrans.o
                                                  /tmp/ccxHBcHG.ltrans0.ltrans.o
                                                  build/obj/chthreads.o (symbol from plugin)
_put.lto_priv.90                                  /tmp/ccxHBcHG.ltrans7.ltrans.o
                                                  /tmp/ccxHBcHG.ltrans6.ltrans.o
_putt.lto_priv.92                                 /tmp/ccxHBcHG.ltrans7.ltrans.o
                                                  /tmp/ccxHBcHG.ltrans6.ltrans.o
_read.lto_priv.89                                 /tmp/ccxHBcHG.ltrans7.ltrans.o
                                                  /tmp/ccxHBcHG.ltrans6.ltrans.o
_readt.lto_priv.95                                /tmp/ccxHBcHG.ltrans7.ltrans.o
                                                  /tmp/ccxHBcHG.ltrans6.ltrans.o
_scheduler_init                                   build/obj/chschd.o (symbol from plugin)
                                                  build/obj/chsys.o (symbol from plugin)
_test_assert                                      /tmp/ccxHBcHG.ltrans2.ltrans.o
                                                  build/obj/ch_test.o (symbol from plugin)
                                                  /tmp/ccxHBcHG.ltrans9.ltrans.o
                                                  /tmp/ccxHBcHG.ltrans6.ltrans.o
                                                  /tmp/ccxHBcHG.ltrans5.ltrans.o
                                                  /tmp/ccxHBcHG.ltrans4.ltrans.o
                                                  /tmp/ccxHBcHG.ltrans3.ltrans.o
                                                  /tmp/ccxHBcHG.ltrans1.ltrans.o
                                                  build/obj/oslib_test_sequence_004.o (symbol from plugin)
                                                  build/obj/oslib_test_sequence_003.o (symbol from plugin)
                                                  build/obj/oslib_test_sequence_002.o (symbol from plugin)
                                                  build/obj/oslib_test_sequence_001.o (symbol from plugin)
                                                  build/obj/rt_test_sequence_009.o (symbol from plugin)
                                                  build/obj/rt_test_sequence_008.o (symbol from plugin)
                                                  build/obj/rt_test_sequence_006.o (symbol from plugin)
                                                  build/obj/rt_test_sequence_005.o (symbol from plugin)
                                                  build/obj/rt_test_sequence_004.o (symbol from plugin)
                                                  build/obj/rt_test_sequence_003.o (symbol from plugin)
                                                  build/obj/rt_test_sequence_002.o (symbol from plugin)
_test_assert_sequence                             /tmp/ccxHBcHG.ltrans2.ltrans.o
                                                  build/obj/ch_test.o (symbol from plugin)
                                                  /tmp/ccxHBcHG.ltrans9.ltrans.o
                                                  /tmp/ccxHBcHG.ltrans5.ltrans.o
                                                  /tmp/ccxHBcHG.ltrans4.ltrans.o
                                                  /tmp/ccxHBcHG.ltrans3.ltrans.o
                                                  /tmp/ccxHBcHG.ltrans1.ltrans.o
                                                  build/obj/oslib_test_sequence_001.o (symbol from plugin)
                                                  build/obj/rt_test_sequence_009.o (symbol from plugin)
                                                  build/obj/rt_test_sequence_008.o (symbol from plugin)
                                                  build/obj/rt_test_sequence_007.o (symbol from plugin)
                                                  build/obj/rt_test_sequence_006.o (symbol from plugin)
                                                  build/obj/rt_test_sequence_005.o (symbol from plugin)
                                                  build/obj/rt_test_sequence_003.o (symbol from plugin)
_test_assert_time_window                          build/obj/ch_test.o (symbol from plugin)
                                                  build/obj/rt_test_sequence_008.o (symbol from plugin)
                                                  build/obj/rt_test_sequence_005.o (symbol from plugin)
                                                  build/obj/rt_test_sequence_004.o (symbol from plugin)
                                                  build/obj/rt_test_sequence_003.o (symbol from plugin)
_test_assert_time_window.constprop.2              /tmp/ccxHBcHG.ltrans0.ltrans.o
                                                  /tmp/ccxHBcHG.ltrans9.ltrans.o
                                                  /tmp/ccxHBcHG.ltrans5.ltrans.o
                                                  /tmp/ccxHBcHG.ltrans1.ltrans.o
_test_fail                                        build/obj/ch_test.o (symbol from plugin)
_textdata_start                                   build/obj/crt0_v7m.o
_thread_init                                      build/obj/chthreads.o (symbol from plugin)
                                                  build/obj/chsys.o (symbol from plugin)
_tm_init                                          build/obj/chtm.o (symbol from plugin)
                                                  build/obj/chsys.o (symbol from plugin)
_unhandled_exception                              build/obj/vectors.o
_vectors                                          build/obj/vectors.o
                                                  build/obj/crt0_v7m.o
_vt_init                                          build/obj/chvt.o (symbol from plugin)
                                                  build/obj/chsys.o (symbol from plugin)
_write.lto_priv.88                                /tmp/ccxHBcHG.ltrans7.ltrans.o
                                                  /tmp/ccxHBcHG.ltrans6.ltrans.o
_writet.lto_priv.94                               /tmp/ccxHBcHG.ltrans7.ltrans.o
                                                  /tmp/ccxHBcHG.ltrans6.ltrans.o
boardInit                                         build/obj/board.o (symbol from plugin)
                                                  build/obj/hal.o (symbol from plugin)
c1.lto_priv.198                                   /tmp/ccxHBcHG.ltrans0.ltrans.o
                                                  /tmp/ccxHBcHG.ltrans5.ltrans.o
                                                  /tmp/ccxHBcHG.ltrans1.ltrans.o
ch                                                /tmp/ccxHBcHG.ltrans0.ltrans.o
                                                  build/obj/chschd.o (symbol from plugin)
                                                  /tmp/ccxHBcHG.ltrans9.ltrans.o
                                                  /tmp/ccxHBcHG.ltrans8.ltrans.o
                                                  /tmp/ccxHBcHG.ltrans7.ltrans.o
                                                  /tmp/ccxHBcHG.ltrans6.ltrans.o
                                                  /tmp/ccxHBcHG.ltrans5.ltrans.o
                                                  /tmp/ccxHBcHG.ltrans4.ltrans.o
                                                  /tmp/ccxHBcHG.ltrans2.ltrans.o
                                                  /tmp/ccxHBcHG.ltrans1.ltrans.o
                                                  build/obj/main.o (symbol from plugin)
                                                  build/obj/rt_test_sequence_010.o (symbol from plugin)
                                                  build/obj/rt_test_sequence_009.o (symbol from plugin)
                                                  build/obj/rt_test_sequence_008.o (symbol from plugin)
                                                  build/obj/rt_test_sequence_007.o (symbol from plugin)
                                                  build/obj/rt_test_sequence_006.o (symbol from plugin)
                                                  build/obj/rt_test_sequence_005.o (symbol from plugin)
                                                  build/obj/rt_test_sequence_004.o (symbol from plugin)
                                                  build/obj/rt_test_sequence_003.o (symbol from plugin)
                                                  build/obj/chmsg.o (symbol from plugin)
                                                  build/obj/chevents.o (symbol from plugin)
                                                  build/obj/chcond.o (symbol from plugin)
                                                  build/obj/chmtx.o (symbol from plugin)
                                                  build/obj/chsem.o (symbol from plugin)
                                                  build/obj/chregistry.o (symbol from plugin)
                                                  build/obj/chtm.o (symbol from plugin)
                                                  build/obj/chthreads.o (symbol from plugin)
                                                  build/obj/chvt.o (symbol from plugin)
                                                  build/obj/chsys.o (symbol from plugin)
chCondBroadcast                                   build/obj/chcond.o (symbol from plugin)
                                                  build/obj/rt_test_sequence_006.o (symbol from plugin)
chCondBroadcastI                                  build/obj/chcond.o (symbol from plugin)
chCondObjectInit                                  build/obj/chcond.o (symbol from plugin)
                                                  build/obj/rt_test_sequence_006.o (symbol from plugin)
chCondSignal                                      build/obj/chcond.o (symbol from plugin)
                                                  build/obj/rt_test_sequence_006.o (symbol from plugin)
chCondSignal.constprop.51                         /tmp/ccxHBcHG.ltrans0.ltrans.o
                                                  /tmp/ccxHBcHG.ltrans1.ltrans.o
chCondSignalI                                     build/obj/chcond.o (symbol from plugin)
                                                  build/obj/rt_test_sequence_006.o (symbol from plugin)
chCondSignalI.constprop.50                        /tmp/ccxHBcHG.ltrans0.ltrans.o
                                                  /tmp/ccxHBcHG.ltrans1.ltrans.o
chCondWait                                        build/obj/chcond.o (symbol from plugin)
                                                  build/obj/rt_test_sequence_006.o (symbol from plugin)
chCondWaitS                                       build/obj/chcond.o (symbol from plugin)
chCondWaitTimeout                                 build/obj/chcond.o (symbol from plugin)
                                                  build/obj/rt_test_sequence_006.o (symbol from plugin)
chCondWaitTimeoutS                                build/obj/chcond.o (symbol from plugin)
chCoreAllocAlignedI.lto_priv.84                   /tmp/ccxHBcHG.ltrans2.ltrans.o
                                                  /tmp/ccxHBcHG.ltrans6.ltrans.o
chCoreAllocAlignedWithOffset                      /tmp/ccxHBcHG.ltrans8.ltrans.o
                                                  build/obj/chmemcore.o (symbol from plugin)
                                                  /tmp/ccxHBcHG.ltrans6.ltrans.o
                                                  build/obj/chheap.o (symbol from plugin)
chCoreAllocAlignedWithOffsetI                     build/obj/chmemcore.o (symbol from plugin)
                                                  build/obj/chfactory.o (symbol from plugin)
chCoreGetStatusX                                  build/obj/chmemcore.o (symbol from plugin)
chEvtAddEvents                                    /tmp/ccxHBcHG.ltrans8.ltrans.o
                                                  build/obj/chevents.o (symbol from plugin)
                                                  /tmp/ccxHBcHG.ltrans1.ltrans.o
                                                  build/obj/rt_test_sequence_008.o (symbol from plugin)
chEvtBroadcastFlags                               build/obj/chevents.o (symbol from plugin)
                                                  build/obj/rt_test_sequence_008.o (symbol from plugin)
chEvtBroadcastFlagsI                              /tmp/ccxHBcHG.ltrans8.ltrans.o
                                                  build/obj/chevents.o (symbol from plugin)
                                                  /tmp/ccxHBcHG.ltrans7.ltrans.o
                                                  /tmp/ccxHBcHG.ltrans1.ltrans.o
                                                  build/obj/hal_serial_lld.o (symbol from plugin)
                                                  build/obj/hal_serial.o (symbol from plugin)
chEvtDispatch                                     build/obj/chevents.o (symbol from plugin)
                                                  build/obj/rt_test_sequence_008.o (symbol from plugin)
chEvtGetAndClearEvents                            build/obj/chevents.o (symbol from plugin)
                                                  build/obj/rt_test_sequence_008.o (symbol from plugin)
chEvtGetAndClearEvents.constprop.43               /tmp/ccxHBcHG.ltrans0.ltrans.o
                                                  /tmp/ccxHBcHG.ltrans1.ltrans.o
chEvtGetAndClearEventsI                           build/obj/chevents.o (symbol from plugin)
chEvtGetAndClearFlags                             build/obj/chevents.o (symbol from plugin)
chEvtGetAndClearFlagsI                            build/obj/chevents.o (symbol from plugin)
chEvtRegisterMaskWithFlags                        build/obj/chevents.o (symbol from plugin)
                                                  build/obj/rt_test_sequence_008.o (symbol from plugin)
chEvtSignal                                       build/obj/chevents.o (symbol from plugin)
                                                  build/obj/rt_test_sequence_008.o (symbol from plugin)
chEvtSignalI                                      /tmp/ccxHBcHG.ltrans8.ltrans.o
                                                  build/obj/chevents.o (symbol from plugin)
                                                  /tmp/ccxHBcHG.ltrans1.ltrans.o
chEvtUnregister                                   /tmp/ccxHBcHG.ltrans8.ltrans.o
                                                  build/obj/chevents.o (symbol from plugin)
                                                  /tmp/ccxHBcHG.ltrans1.ltrans.o
                                                  build/obj/rt_test_sequence_008.o (symbol from plugin)
chEvtWaitAll                                      build/obj/chevents.o (symbol from plugin)
                                                  build/obj/rt_test_sequence_008.o (symbol from plugin)
chEvtWaitAll.constprop.37                         /tmp/ccxHBcHG.ltrans0.ltrans.o
                                                  /tmp/ccxHBcHG.ltrans1.ltrans.o
chEvtWaitAllTimeout                               build/obj/chevents.o (symbol from plugin)
                                                  build/obj/rt_test_sequence_008.o (symbol from plugin)
chEvtWaitAny                                      build/obj/chevents.o (symbol from plugin)
                                                  build/obj/rt_test_sequence_008.o (symbol from plugin)
chEvtWaitAny.constprop.38                         /tmp/ccxHBcHG.ltrans0.ltrans.o
                                                  /tmp/ccxHBcHG.ltrans1.ltrans.o
chEvtWaitAnyTimeout                               build/obj/chevents.o (symbol from plugin)
                                                  build/obj/rt_test_sequence_008.o (symbol from plugin)
chEvtWaitOne                                      build/obj/chevents.o (symbol from plugin)
                                                  build/obj/rt_test_sequence_008.o (symbol from plugin)
chEvtWaitOne.constprop.39                         /tmp/ccxHBcHG.ltrans0.ltrans.o
                                                  /tmp/ccxHBcHG.ltrans1.ltrans.o
chEvtWaitOneTimeout                               build/obj/chevents.o (symbol from plugin)
                                                  build/obj/rt_test_sequence_008.o (symbol from plugin)
chFactoryCreateBuffer                             build/obj/chfactory.o (symbol from plugin)
                                                  build/obj/oslib_test_sequence_004.o (symbol from plugin)
chFactoryCreateBuffer.constprop.10                /tmp/ccxHBcHG.ltrans0.ltrans.o
                                                  /tmp/ccxHBcHG.ltrans6.ltrans.o
chFactoryCreateMailbox                            build/obj/chfactory.o (symbol from plugin)
                                                  build/obj/oslib_test_sequence_004.o (symbol from plugin)
chFactoryCreateMailbox.constprop.6                /tmp/ccxHBcHG.ltrans0.ltrans.o
                                                  /tmp/ccxHBcHG.ltrans6.ltrans.o
chFactoryCreateObjectsFIFO                        build/obj/chfactory.o (symbol from plugin)
                                                  build/obj/oslib_test_sequence_004.o (symbol from plugin)
chFactoryCreateObjectsFIFO.constprop.4            /tmp/ccxHBcHG.ltrans0.ltrans.o
                                                  /tmp/ccxHBcHG.ltrans6.ltrans.o
chFactoryCreateSemaphore                          build/obj/chfactory.o (symbol from plugin)
                                                  build/obj/oslib_test_sequence_004.o (symbol from plugin)
chFactoryCreateSemaphore.constprop.8              /tmp/ccxHBcHG.ltrans0.ltrans.o
                                                  /tmp/ccxHBcHG.ltrans6.ltrans.o
chFactoryFindBuffer                               build/obj/chfactory.o (symbol from plugin)
                                                  build/obj/oslib_test_sequence_004.o (symbol from plugin)
chFactoryFindBuffer.constprop.9                   /tmp/ccxHBcHG.ltrans0.ltrans.o
                                                  /tmp/ccxHBcHG.ltrans6.ltrans.o
chFactoryFindMailbox                              build/obj/chfactory.o (symbol from plugin)
                                                  build/obj/oslib_test_sequence_004.o (symbol from plugin)
chFactoryFindMailbox.constprop.5                  /tmp/ccxHBcHG.ltrans0.ltrans.o
                                                  /tmp/ccxHBcHG.ltrans6.ltrans.o
chFactoryFindObject                               build/obj/chfactory.o (symbol from plugin)
                                                  build/obj/oslib_test_sequence_004.o (symbol from plugin)
chFactoryFindObject.constprop.11                  /tmp/ccxHBcHG.ltrans0.ltrans.o
                                                  /tmp/ccxHBcHG.ltrans3.ltrans.o
chFactoryFindObjectByPointer                      build/obj/chfactory.o (symbol from plugin)
chFactoryFindObjectsFIFO                          build/obj/chfactory.o (symbol from plugin)
                                                  build/obj/oslib_test_sequence_004.o (symbol from plugin)
chFactoryFindObjectsFIFO.constprop.3              /tmp/ccxHBcHG.ltrans0.ltrans.o
                                                  /tmp/ccxHBcHG.ltrans6.ltrans.o
chFactoryFindSemaphore                            build/obj/chfactory.o (symbol from plugin)
                                                  build/obj/oslib_test_sequence_004.o (symbol from plugin)
chFactoryFindSemaphore.constprop.7                /tmp/ccxHBcHG.ltrans0.ltrans.o
                                                  /tmp/ccxHBcHG.ltrans6.ltrans.o
chFactoryRegisterObject                           build/obj/chfactory.o (symbol from plugin)
                                                  build/obj/oslib_test_sequence_004.o (symbol from plugin)
chFactoryRegisterObject.constprop.12              /tmp/ccxHBcHG.ltrans0.ltrans.o
                                                  /tmp/ccxHBcHG.ltrans3.ltrans.o
chFactoryReleaseBuffer                            /tmp/ccxHBcHG.ltrans2.ltrans.o
                                                  build/obj/chfactory.o (symbol from plugin)
                                                  /tmp/ccxHBcHG.ltrans6.ltrans.o
                                                  build/obj/oslib_test_sequence_004.o (symbol from plugin)
chFactoryReleaseMailbox                           /tmp/ccxHBcHG.ltrans2.ltrans.o
                                                  build/obj/chfactory.o (symbol from plugin)
                                                  /tmp/ccxHBcHG.ltrans6.ltrans.o
                                                  build/obj/oslib_test_sequence_004.o (symbol from plugin)
chFactoryReleaseObject                            /tmp/ccxHBcHG.ltrans2.ltrans.o
                                                  build/obj/chfactory.o (symbol from plugin)
                                                  /tmp/ccxHBcHG.ltrans3.ltrans.o
                                                  build/obj/oslib_test_sequence_004.o (symbol from plugin)
chFactoryReleaseObjectsFIFO                       /tmp/ccxHBcHG.ltrans2.ltrans.o
                                                  build/obj/chfactory.o (symbol from plugin)
                                                  /tmp/ccxHBcHG.ltrans6.ltrans.o
                                                  build/obj/oslib_test_sequence_004.o (symbol from plugin)
chFactoryReleaseSemaphore                         /tmp/ccxHBcHG.ltrans2.ltrans.o
                                                  build/obj/chfactory.o (symbol from plugin)
                                                  /tmp/ccxHBcHG.ltrans6.ltrans.o
                                                  build/obj/oslib_test_sequence_004.o (symbol from plugin)
chGuardedPoolAllocTimeout                         build/obj/chmempools.o (symbol from plugin)
                                                  build/obj/oslib_test_sequence_002.o (symbol from plugin)
chGuardedPoolAllocTimeout.constprop.15            /tmp/ccxHBcHG.ltrans0.ltrans.o
                                                  /tmp/ccxHBcHG.ltrans3.ltrans.o
chGuardedPoolAllocTimeoutS                        build/obj/chmempools.o (symbol from plugin)
chGuardedPoolFree                                 build/obj/chmempools.o (symbol from plugin)
                                                  build/obj/oslib_test_sequence_002.o (symbol from plugin)
chGuardedPoolFreeI                                build/obj/chmempools.o (symbol from plugin)
chGuardedPoolLoadArray                            build/obj/chmempools.o (symbol from plugin)
                                                  build/obj/oslib_test_sequence_002.o (symbol from plugin)
                                                  build/obj/chfactory.o (symbol from plugin)
chGuardedPoolObjectInitAligned                    build/obj/chmempools.o (symbol from plugin)
                                                  build/obj/oslib_test_sequence_002.o (symbol from plugin)
                                                  build/obj/chfactory.o (symbol from plugin)
chHeapAllocAligned                                build/obj/chheap.o (symbol from plugin)
                                                  build/obj/oslib_test_sequence_003.o (symbol from plugin)
                                                  build/obj/chfactory.o (symbol from plugin)
                                                  build/obj/chdynamic.o (symbol from plugin)
chHeapAllocAligned.constprop.33                   /tmp/ccxHBcHG.ltrans0.ltrans.o
                                                  /tmp/ccxHBcHG.ltrans3.ltrans.o
                                                  /tmp/ccxHBcHG.ltrans2.ltrans.o
chHeapFree                                        /tmp/ccxHBcHG.ltrans8.ltrans.o
                                                  build/obj/chheap.o (symbol from plugin)
                                                  /tmp/ccxHBcHG.ltrans3.ltrans.o
                                                  /tmp/ccxHBcHG.ltrans2.ltrans.o
                                                  build/obj/oslib_test_sequence_003.o (symbol from plugin)
                                                  build/obj/chfactory.o (symbol from plugin)
                                                  build/obj/chthreads.o (symbol from plugin)
chHeapObjectInit                                  build/obj/chheap.o (symbol from plugin)
                                                  build/obj/oslib_test_sequence_003.o (symbol from plugin)
                                                  build/obj/rt_test_sequence_009.o (symbol from plugin)
chHeapStatus                                      /tmp/ccxHBcHG.ltrans2.ltrans.o
                                                  build/obj/chheap.o (symbol from plugin)
                                                  /tmp/ccxHBcHG.ltrans3.ltrans.o
                                                  /tmp/ccxHBcHG.ltrans1.ltrans.o
                                                  build/obj/oslib_test_sequence_003.o (symbol from plugin)
                                                  build/obj/rt_test_sequence_009.o (symbol from plugin)
chMBFetchI                                        build/obj/chmboxes.o (symbol from plugin)
                                                  build/obj/oslib_test_sequence_001.o (symbol from plugin)
chMBFetchI.constprop.20                           /tmp/ccxHBcHG.ltrans0.ltrans.o
                                                  /tmp/ccxHBcHG.ltrans3.ltrans.o
chMBFetchTimeout                                  build/obj/chmboxes.o (symbol from plugin)
                                                  build/obj/oslib_test_sequence_001.o (symbol from plugin)
chMBFetchTimeout.constprop.21                     /tmp/ccxHBcHG.ltrans0.ltrans.o
                                                  /tmp/ccxHBcHG.ltrans4.ltrans.o
                                                  /tmp/ccxHBcHG.ltrans3.ltrans.o
chMBFetchTimeoutS                                 build/obj/chmboxes.o (symbol from plugin)
chMBObjectInit                                    build/obj/chmboxes.o (symbol from plugin)
                                                  build/obj/oslib_test_sequence_001.o (symbol from plugin)
                                                  build/obj/chfactory.o (symbol from plugin)
chMBPostAheadI                                    build/obj/chmboxes.o (symbol from plugin)
                                                  build/obj/oslib_test_sequence_001.o (symbol from plugin)
chMBPostAheadI.constprop.23                       /tmp/ccxHBcHG.ltrans0.ltrans.o
                                                  /tmp/ccxHBcHG.ltrans3.ltrans.o
chMBPostAheadTimeout                              build/obj/chmboxes.o (symbol from plugin)
                                                  build/obj/oslib_test_sequence_001.o (symbol from plugin)
chMBPostAheadTimeout.constprop.24                 /tmp/ccxHBcHG.ltrans0.ltrans.o
                                                  /tmp/ccxHBcHG.ltrans4.ltrans.o
                                                  /tmp/ccxHBcHG.ltrans3.ltrans.o
chMBPostAheadTimeoutS                             build/obj/chmboxes.o (symbol from plugin)
chMBPostI                                         build/obj/chmboxes.o (symbol from plugin)
                                                  build/obj/oslib_test_sequence_001.o (symbol from plugin)
chMBPostI.constprop.26                            /tmp/ccxHBcHG.ltrans0.ltrans.o
                                                  /tmp/ccxHBcHG.ltrans3.ltrans.o
chMBPostTimeout                                   build/obj/chmboxes.o (symbol from plugin)
                                                  build/obj/oslib_test_sequence_001.o (symbol from plugin)
chMBPostTimeout.constprop.27                      /tmp/ccxHBcHG.ltrans0.ltrans.o
                                                  /tmp/ccxHBcHG.ltrans4.ltrans.o
                                                  /tmp/ccxHBcHG.ltrans3.ltrans.o
chMBPostTimeoutS                                  build/obj/chmboxes.o (symbol from plugin)
chMBReset                                         build/obj/chmboxes.o (symbol from plugin)
                                                  build/obj/oslib_test_sequence_001.o (symbol from plugin)
chMBReset.constprop.29                            /tmp/ccxHBcHG.ltrans0.ltrans.o
                                                  /tmp/ccxHBcHG.ltrans4.ltrans.o
                                                  /tmp/ccxHBcHG.ltrans3.ltrans.o
chMBResetI                                        build/obj/chmboxes.o (symbol from plugin)
                                                  build/obj/oslib_test_sequence_001.o (symbol from plugin)
chMsgRelease                                      build/obj/chmsg.o (symbol from plugin)
                                                  build/obj/rt_test_sequence_010.o (symbol from plugin)
                                                  build/obj/rt_test_sequence_007.o (symbol from plugin)
chMsgSend                                         /tmp/ccxHBcHG.ltrans8.ltrans.o
                                                  build/obj/chmsg.o (symbol from plugin)
                                                  /tmp/ccxHBcHG.ltrans4.ltrans.o
                                                  /tmp/ccxHBcHG.ltrans1.ltrans.o
                                                  build/obj/rt_test_sequence_010.o (symbol from plugin)
                                                  build/obj/rt_test_sequence_007.o (symbol from plugin)
chMsgWait                                         /tmp/ccxHBcHG.ltrans8.ltrans.o
                                                  build/obj/chmsg.o (symbol from plugin)
                                                  /tmp/ccxHBcHG.ltrans4.ltrans.o
                                                  /tmp/ccxHBcHG.ltrans1.ltrans.o
                                                  build/obj/rt_test_sequence_010.o (symbol from plugin)
                                                  build/obj/rt_test_sequence_007.o (symbol from plugin)
chMtxLock                                         /tmp/ccxHBcHG.ltrans8.ltrans.o
                                                  build/obj/chmtx.o (symbol from plugin)
                                                  /tmp/ccxHBcHG.ltrans5.ltrans.o
                                                  /tmp/ccxHBcHG.ltrans4.ltrans.o
                                                  /tmp/ccxHBcHG.ltrans2.ltrans.o
                                                  /tmp/ccxHBcHG.ltrans0.ltrans.o
                                                  build/obj/rt_test_sequence_010.o (symbol from plugin)
                                                  build/obj/rt_test_sequence_006.o (symbol from plugin)
                                                  build/obj/chfactory.o (symbol from plugin)
                                                  build/obj/chheap.o (symbol from plugin)
chMtxLockS                                        /tmp/ccxHBcHG.ltrans8.ltrans.o
                                                  build/obj/chmtx.o (symbol from plugin)
                                                  /tmp/ccxHBcHG.ltrans5.ltrans.o
                                                  build/obj/rt_test_sequence_006.o (symbol from plugin)
                                                  build/obj/chcond.o (symbol from plugin)
chMtxObjectInit                                   build/obj/chmtx.o (symbol from plugin)
                                                  build/obj/rt_test_sequence_010.o (symbol from plugin)
                                                  build/obj/rt_test_sequence_006.o (symbol from plugin)
                                                  build/obj/chfactory.o (symbol from plugin)
                                                  build/obj/chheap.o (symbol from plugin)
chMtxTryLock                                      build/obj/chmtx.o (symbol from plugin)
                                                  build/obj/rt_test_sequence_006.o (symbol from plugin)
chMtxTryLock.constprop.53                         /tmp/ccxHBcHG.ltrans0.ltrans.o
                                                  /tmp/ccxHBcHG.ltrans5.ltrans.o
chMtxTryLockS                                     build/obj/chmtx.o (symbol from plugin)
chMtxUnlock                                       /tmp/ccxHBcHG.ltrans8.ltrans.o
                                                  build/obj/chmtx.o (symbol from plugin)
                                                  /tmp/ccxHBcHG.ltrans5.ltrans.o
                                                  /tmp/ccxHBcHG.ltrans4.ltrans.o
                                                  /tmp/ccxHBcHG.ltrans2.ltrans.o
                                                  /tmp/ccxHBcHG.ltrans0.ltrans.o
                                                  build/obj/rt_test_sequence_010.o (symbol from plugin)
                                                  build/obj/rt_test_sequence_006.o (symbol from plugin)
                                                  build/obj/chfactory.o (symbol from plugin)
                                                  build/obj/chheap.o (symbol from plugin)
chMtxUnlockAll                                    build/obj/chmtx.o (symbol from plugin)
                                                  build/obj/rt_test_sequence_006.o (symbol from plugin)
chMtxUnlockAllS                                   build/obj/chmtx.o (symbol from plugin)
chMtxUnlockS                                      /tmp/ccxHBcHG.ltrans8.ltrans.o
                                                  build/obj/chmtx.o (symbol from plugin)
                                                  /tmp/ccxHBcHG.ltrans5.ltrans.o
                                                  build/obj/rt_test_sequence_006.o (symbol from plugin)
                                                  build/obj/chcond.o (symbol from plugin)
chPoolAlloc                                       /tmp/ccxHBcHG.ltrans2.ltrans.o
                                                  build/obj/chmempools.o (symbol from plugin)
                                                  /tmp/ccxHBcHG.ltrans4.ltrans.o
                                                  /tmp/ccxHBcHG.ltrans3.ltrans.o
                                                  /tmp/ccxHBcHG.ltrans0.ltrans.o
                                                  build/obj/oslib_test_sequence_002.o (symbol from plugin)
                                                  build/obj/rt_test_sequence_009.o (symbol from plugin)
                                                  build/obj/chfactory.o (symbol from plugin)
                                                  build/obj/chdynamic.o (symbol from plugin)
chPoolAllocI                                      build/obj/chmempools.o (symbol from plugin)
chPoolFree                                        build/obj/chmempools.o (symbol from plugin)
                                                  build/obj/oslib_test_sequence_002.o (symbol from plugin)
                                                  build/obj/rt_test_sequence_009.o (symbol from plugin)
                                                  build/obj/chfactory.o (symbol from plugin)
                                                  build/obj/chthreads.o (symbol from plugin)
chPoolFreeI                                       build/obj/chmempools.o (symbol from plugin)
chPoolLoadArray                                   build/obj/chmempools.o (symbol from plugin)
                                                  build/obj/oslib_test_sequence_002.o (symbol from plugin)
chPoolObjectInitAligned                           build/obj/chmempools.o (symbol from plugin)
                                                  build/obj/oslib_test_sequence_002.o (symbol from plugin)
                                                  build/obj/rt_test_sequence_009.o (symbol from plugin)
                                                  build/obj/chfactory.o (symbol from plugin)
chRegFindThreadByName                             build/obj/chregistry.o (symbol from plugin)
chRegFindThreadByPointer                          build/obj/chregistry.o (symbol from plugin)
chRegFindThreadByWorkingArea                      build/obj/chregistry.o (symbol from plugin)
chRegFirstThread                                  build/obj/chregistry.o (symbol from plugin)
chRegNextThread                                   build/obj/chregistry.o (symbol from plugin)
chSchDoReschedule                                 /tmp/ccxHBcHG.ltrans8.ltrans.o
                                                  build/obj/chschd.o (symbol from plugin)
                                                  build/obj/chcoreasm_v7m.o
chSchDoRescheduleAhead                            build/obj/chschd.o (symbol from plugin)
chSchDoRescheduleBehind                           build/obj/chschd.o (symbol from plugin)
                                                  build/obj/chthreads.o (symbol from plugin)
chSchGoSleepS                                     /tmp/ccxHBcHG.ltrans8.ltrans.o
                                                  build/obj/chschd.o (symbol from plugin)
                                                  /tmp/ccxHBcHG.ltrans9.ltrans.o
                                                  /tmp/ccxHBcHG.ltrans5.ltrans.o
                                                  /tmp/ccxHBcHG.ltrans4.ltrans.o
                                                  /tmp/ccxHBcHG.ltrans0.ltrans.o
                                                  build/obj/rt_test_sequence_010.o (symbol from plugin)
                                                  build/obj/chmsg.o (symbol from plugin)
                                                  build/obj/chevents.o (symbol from plugin)
                                                  build/obj/chcond.o (symbol from plugin)
                                                  build/obj/chmtx.o (symbol from plugin)
                                                  build/obj/chsem.o (symbol from plugin)
                                                  build/obj/chthreads.o (symbol from plugin)
chSchGoSleepTimeoutS                              /tmp/ccxHBcHG.ltrans8.ltrans.o
                                                  build/obj/chschd.o (symbol from plugin)
                                                  /tmp/ccxHBcHG.ltrans9.ltrans.o
                                                  /tmp/ccxHBcHG.ltrans1.ltrans.o
                                                  /tmp/ccxHBcHG.ltrans0.ltrans.o
                                                  build/obj/chevents.o (symbol from plugin)
                                                  build/obj/chcond.o (symbol from plugin)
                                                  build/obj/chsem.o (symbol from plugin)
                                                  build/obj/chthreads.o (symbol from plugin)
chSchIsPreemptionRequired                         build/obj/chschd.o (symbol from plugin)
                                                  build/obj/chcore_v7m.o (symbol from plugin)
chSchReadyAheadI                                  build/obj/chschd.o (symbol from plugin)
chSchReadyI                                       /tmp/ccxHBcHG.ltrans8.ltrans.o
                                                  build/obj/chschd.o (symbol from plugin)
                                                  /tmp/ccxHBcHG.ltrans9.ltrans.o
                                                  /tmp/ccxHBcHG.ltrans5.ltrans.o
                                                  /tmp/ccxHBcHG.ltrans1.ltrans.o
                                                  /tmp/ccxHBcHG.ltrans0.ltrans.o
                                                  build/obj/chmsg.o (symbol from plugin)
                                                  build/obj/chevents.o (symbol from plugin)
                                                  build/obj/chcond.o (symbol from plugin)
                                                  build/obj/chmtx.o (symbol from plugin)
                                                  build/obj/chsem.o (symbol from plugin)
                                                  build/obj/chthreads.o (symbol from plugin)
chSchRescheduleS                                  /tmp/ccxHBcHG.ltrans8.ltrans.o
                                                  build/obj/chschd.o (symbol from plugin)
                                                  /tmp/ccxHBcHG.ltrans9.ltrans.o
                                                  /tmp/ccxHBcHG.ltrans5.ltrans.o
                                                  /tmp/ccxHBcHG.ltrans3.ltrans.o
                                                  /tmp/ccxHBcHG.ltrans1.ltrans.o
                                                  /tmp/ccxHBcHG.ltrans0.ltrans.o
                                                  build/obj/rt_test_sequence_006.o (symbol from plugin)
                                                  build/obj/rt_test_sequence_005.o (symbol from plugin)
                                                  build/obj/rt_test_sequence_004.o (symbol from plugin)
                                                  build/obj/chmempools.o (symbol from plugin)
                                                  build/obj/chmboxes.o (symbol from plugin)
                                                  build/obj/chevents.o (symbol from plugin)
                                                  build/obj/chcond.o (symbol from plugin)
                                                  build/obj/chmtx.o (symbol from plugin)
                                                  build/obj/chsem.o (symbol from plugin)
                                                  build/obj/chthreads.o (symbol from plugin)
                                                  build/obj/chsys.o (symbol from plugin)
                                                  build/obj/hal_serial.o (symbol from plugin)
chSchWakeupS                                      /tmp/ccxHBcHG.ltrans8.ltrans.o
                                                  build/obj/chschd.o (symbol from plugin)
                                                  /tmp/ccxHBcHG.ltrans6.ltrans.o
                                                  /tmp/ccxHBcHG.ltrans4.ltrans.o
                                                  /tmp/ccxHBcHG.ltrans1.ltrans.o
                                                  /tmp/ccxHBcHG.ltrans0.ltrans.o
                                                  build/obj/rt_test_sequence_010.o (symbol from plugin)
                                                  build/obj/chdynamic.o (symbol from plugin)
                                                  build/obj/chmsg.o (symbol from plugin)
                                                  build/obj/chcond.o (symbol from plugin)
                                                  build/obj/chsem.o (symbol from plugin)
                                                  build/obj/chthreads.o (symbol from plugin)
chSemAddCounterI                                  build/obj/chsem.o (symbol from plugin)
                                                  build/obj/rt_test_sequence_005.o (symbol from plugin)
chSemObjectInit                                   build/obj/chsem.o (symbol from plugin)
                                                  build/obj/rt_test_sequence_010.o (symbol from plugin)
                                                  build/obj/rt_test_sequence_005.o (symbol from plugin)
                                                  build/obj/chfactory.o (symbol from plugin)
                                                  build/obj/chmempools.o (symbol from plugin)
chSemReset                                        /tmp/ccxHBcHG.ltrans8.ltrans.o
                                                  build/obj/chsem.o (symbol from plugin)
                                                  /tmp/ccxHBcHG.ltrans5.ltrans.o
                                                  /tmp/ccxHBcHG.ltrans4.ltrans.o
                                                  build/obj/rt_test_sequence_010.o (symbol from plugin)
                                                  build/obj/rt_test_sequence_005.o (symbol from plugin)
chSemResetI                                       build/obj/chsem.o (symbol from plugin)
chSemSignal                                       /tmp/ccxHBcHG.ltrans8.ltrans.o
                                                  build/obj/chsem.o (symbol from plugin)
                                                  /tmp/ccxHBcHG.ltrans5.ltrans.o
                                                  /tmp/ccxHBcHG.ltrans4.ltrans.o
                                                  build/obj/rt_test_sequence_010.o (symbol from plugin)
                                                  build/obj/rt_test_sequence_005.o (symbol from plugin)
chSemSignalI                                      /tmp/ccxHBcHG.ltrans8.ltrans.o
                                                  build/obj/chsem.o (symbol from plugin)
                                                  /tmp/ccxHBcHG.ltrans5.ltrans.o
                                                  /tmp/ccxHBcHG.ltrans3.ltrans.o
                                                  /tmp/ccxHBcHG.ltrans0.ltrans.o
                                                  build/obj/rt_test_sequence_005.o (symbol from plugin)
                                                  build/obj/chmempools.o (symbol from plugin)
chSemSignalWait                                   build/obj/chsem.o (symbol from plugin)
                                                  build/obj/rt_test_sequence_005.o (symbol from plugin)
chSemSignalWait.constprop.55                      /tmp/ccxHBcHG.ltrans0.ltrans.o
                                                  /tmp/ccxHBcHG.ltrans5.ltrans.o
chSemWait                                         /tmp/ccxHBcHG.ltrans8.ltrans.o
                                                  build/obj/chsem.o (symbol from plugin)
                                                  /tmp/ccxHBcHG.ltrans5.ltrans.o
                                                  /tmp/ccxHBcHG.ltrans4.ltrans.o
                                                  build/obj/rt_test_sequence_010.o (symbol from plugin)
                                                  build/obj/rt_test_sequence_005.o (symbol from plugin)
chSemWaitS                                        build/obj/chsem.o (symbol from plugin)
chSemWaitTimeout                                  build/obj/chsem.o (symbol from plugin)
                                                  build/obj/rt_test_sequence_005.o (symbol from plugin)
chSemWaitTimeout.constprop.58                     /tmp/ccxHBcHG.ltrans0.ltrans.o
                                                  /tmp/ccxHBcHG.ltrans5.ltrans.o
chSemWaitTimeoutS                                 build/obj/chsem.o (symbol from plugin)
                                                  build/obj/chmempools.o (symbol from plugin)
chSysGetStatusAndLockX                            build/obj/chsys.o (symbol from plugin)
                                                  build/obj/rt_test_sequence_002.o (symbol from plugin)
chSysGetStatusAndLockX.part.1                     /tmp/ccxHBcHG.ltrans8.ltrans.o
                                                  /tmp/ccxHBcHG.ltrans9.ltrans.o
chSysHalt                                         build/obj/chsys.o (symbol from plugin)
chSysInit                                         build/obj/chsys.o (symbol from plugin)
                                                  build/obj/main.o (symbol from plugin)
chSysIntegrityCheckI                              /tmp/ccxHBcHG.ltrans8.ltrans.o
                                                  build/obj/chsys.o (symbol from plugin)
                                                  /tmp/ccxHBcHG.ltrans9.ltrans.o
                                                  build/obj/rt_test_sequence_002.o (symbol from plugin)
chSysIsCounterWithinX                             build/obj/chsys.o (symbol from plugin)
chSysPolledDelayX                                 build/obj/chsys.o (symbol from plugin)
chSysRestoreStatusX                               build/obj/chsys.o (symbol from plugin)
                                                  build/obj/rt_test_sequence_002.o (symbol from plugin)
chSysRestoreStatusX.part.2                        /tmp/ccxHBcHG.ltrans8.ltrans.o
                                                  /tmp/ccxHBcHG.ltrans9.ltrans.o
chSysTimerHandlerI                                build/obj/chsys.o (symbol from plugin)
                                                  build/obj/hal_st_lld.o (symbol from plugin)
chTMChainMeasurementToX                           build/obj/chtm.o (symbol from plugin)
chTMObjectInit                                    build/obj/chtm.o (symbol from plugin)
chTMStartMeasurementX                             build/obj/chtm.o (symbol from plugin)
chTMStartMeasurementX.constprop.62                /tmp/ccxHBcHG.ltrans0.ltrans.o
                                                  /tmp/ccxHBcHG.ltrans6.ltrans.o
chTMStopMeasurementX                              /tmp/ccxHBcHG.ltrans8.ltrans.o
                                                  build/obj/chtm.o (symbol from plugin)
                                                  /tmp/ccxHBcHG.ltrans6.ltrans.o
chThdAddRef                                       build/obj/chthreads.o (symbol from plugin)
chThdCreate                                       build/obj/chthreads.o (symbol from plugin)
                                                  build/obj/chsys.o (symbol from plugin)
chThdCreateFromHeap                               build/obj/chdynamic.o (symbol from plugin)
                                                  build/obj/rt_test_sequence_009.o (symbol from plugin)
chThdCreateFromHeap.constprop.32                  /tmp/ccxHBcHG.ltrans0.ltrans.o
                                                  /tmp/ccxHBcHG.ltrans1.ltrans.o
chThdCreateFromMemoryPool                         build/obj/chdynamic.o (symbol from plugin)
                                                  build/obj/rt_test_sequence_009.o (symbol from plugin)
chThdCreateFromMemoryPool.constprop.31            /tmp/ccxHBcHG.ltrans0.ltrans.o
                                                  /tmp/ccxHBcHG.ltrans4.ltrans.o
chThdCreateI                                      build/obj/chthreads.o (symbol from plugin)
chThdCreateStatic                                 build/obj/chthreads.o (symbol from plugin)
                                                  build/obj/main.o (symbol from plugin)
                                                  build/obj/rt_test_sequence_010.o (symbol from plugin)
                                                  build/obj/rt_test_sequence_008.o (symbol from plugin)
                                                  build/obj/rt_test_sequence_007.o (symbol from plugin)
                                                  build/obj/rt_test_sequence_006.o (symbol from plugin)
                                                  build/obj/rt_test_sequence_005.o (symbol from plugin)
                                                  build/obj/rt_test_sequence_004.o (symbol from plugin)
                                                  build/obj/rt_test_sequence_003.o (symbol from plugin)
chThdCreateStatic.constprop.61                    /tmp/ccxHBcHG.ltrans0.ltrans.o
                                                  /tmp/ccxHBcHG.ltrans9.ltrans.o
                                                  /tmp/ccxHBcHG.ltrans6.ltrans.o
                                                  /tmp/ccxHBcHG.ltrans5.ltrans.o
                                                  /tmp/ccxHBcHG.ltrans4.ltrans.o
                                                  /tmp/ccxHBcHG.ltrans1.ltrans.o
chThdCreateSuspended                              build/obj/chthreads.o (symbol from plugin)
chThdCreateSuspendedI                             /tmp/ccxHBcHG.ltrans8.ltrans.o
                                                  build/obj/chthreads.o (symbol from plugin)
                                                  /tmp/ccxHBcHG.ltrans6.ltrans.o
                                                  /tmp/ccxHBcHG.ltrans0.ltrans.o
                                                  build/obj/chdynamic.o (symbol from plugin)
chThdDequeueAllI                                  /tmp/ccxHBcHG.ltrans8.ltrans.o
                                                  build/obj/chthreads.o (symbol from plugin)
                                                  /tmp/ccxHBcHG.ltrans7.ltrans.o
                                                  /tmp/ccxHBcHG.ltrans3.ltrans.o
                                                  /tmp/ccxHBcHG.ltrans0.ltrans.o
                                                  build/obj/chmboxes.o (symbol from plugin)
                                                  build/obj/hal_pal_lld.o (symbol from plugin)
                                                  build/obj/stm32_isr.o (symbol from plugin)
                                                  build/obj/hal_queues.o (symbol from plugin)
                                                  build/obj/hal_buffers.o (symbol from plugin)
chThdDequeueNextI                                 build/obj/chthreads.o (symbol from plugin)
                                                  build/obj/chmboxes.o (symbol from plugin)
                                                  build/obj/hal_queues.o (symbol from plugin)
                                                  build/obj/hal_buffers.o (symbol from plugin)
chThdDequeueNextI.constprop.75                    /tmp/ccxHBcHG.ltrans0.ltrans.o
                                                  /tmp/ccxHBcHG.ltrans7.ltrans.o
chThdEnqueueTimeoutS                              /tmp/ccxHBcHG.ltrans8.ltrans.o
                                                  build/obj/chthreads.o (symbol from plugin)
                                                  /tmp/ccxHBcHG.ltrans7.ltrans.o
                                                  /tmp/ccxHBcHG.ltrans0.ltrans.o
                                                  build/obj/chmboxes.o (symbol from plugin)
                                                  build/obj/hal_pal.o (symbol from plugin)
                                                  build/obj/hal_queues.o (symbol from plugin)
                                                  build/obj/hal_buffers.o (symbol from plugin)
chThdExit                                         /tmp/ccxHBcHG.ltrans8.ltrans.o
                                                  build/obj/chthreads.o (symbol from plugin)
                                                  /tmp/ccxHBcHG.ltrans4.ltrans.o
                                                  build/obj/rt_test_sequence_010.o (symbol from plugin)
                                                  build/obj/chcoreasm_v7m.o
chThdExitS                                        build/obj/chthreads.o (symbol from plugin)
chThdRelease                                      /tmp/ccxHBcHG.ltrans8.ltrans.o
                                                  build/obj/chthreads.o (symbol from plugin)
                                                  /tmp/ccxHBcHG.ltrans4.ltrans.o
                                                  build/obj/rt_test_sequence_010.o (symbol from plugin)
                                                  build/obj/chregistry.o (symbol from plugin)
chThdResume                                       build/obj/chthreads.o (symbol from plugin)
chThdResumeI                                      build/obj/chthreads.o (symbol from plugin)
                                                  build/obj/rt_test_sequence_004.o (symbol from plugin)
chThdResumeS                                      build/obj/chthreads.o (symbol from plugin)
chThdSetPriority                                  /tmp/ccxHBcHG.ltrans8.ltrans.o
                                                  build/obj/chthreads.o (symbol from plugin)
                                                  /tmp/ccxHBcHG.ltrans9.ltrans.o
                                                  build/obj/rt_test_sequence_003.o (symbol from plugin)
chThdSleep                                        /tmp/ccxHBcHG.ltrans8.ltrans.o
                                                  build/obj/chthreads.o (symbol from plugin)
                                                  /tmp/ccxHBcHG.ltrans9.ltrans.o
                                                  /tmp/ccxHBcHG.ltrans6.ltrans.o
                                                  /tmp/ccxHBcHG.ltrans5.ltrans.o
                                                  /tmp/ccxHBcHG.ltrans4.ltrans.o
                                                  /tmp/ccxHBcHG.ltrans2.ltrans.o
                                                  /tmp/ccxHBcHG.ltrans1.ltrans.o
                                                  /tmp/ccxHBcHG.ltrans0.ltrans.o
                                                  build/obj/main.o (symbol from plugin)
                                                  build/obj/rt_test_sequence_010.o (symbol from plugin)
                                                  build/obj/rt_test_sequence_008.o (symbol from plugin)
                                                  build/obj/rt_test_sequence_006.o (symbol from plugin)
                                                  build/obj/rt_test_sequence_005.o (symbol from plugin)
                                                  build/obj/rt_test_sequence_003.o (symbol from plugin)
                                                  build/obj/rt_test_sequence_002.o (symbol from plugin)
                                                  build/obj/rt_test_root.o (symbol from plugin)
                                                  build/obj/ch_test.o (symbol from plugin)
chThdSleepUntil                                   build/obj/chthreads.o (symbol from plugin)
                                                  build/obj/rt_test_sequence_003.o (symbol from plugin)
chThdSleepUntilWindowed                           build/obj/chthreads.o (symbol from plugin)
chThdStart                                        build/obj/chthreads.o (symbol from plugin)
chThdSuspendS                                     build/obj/chthreads.o (symbol from plugin)
chThdSuspendTimeoutS                              build/obj/chthreads.o (symbol from plugin)
                                                  build/obj/rt_test_sequence_004.o (symbol from plugin)
chThdTerminate                                    build/obj/chthreads.o (symbol from plugin)
                                                  build/obj/rt_test_root.o (symbol from plugin)
chThdWait                                         /tmp/ccxHBcHG.ltrans8.ltrans.o
                                                  build/obj/chthreads.o (symbol from plugin)
                                                  /tmp/ccxHBcHG.ltrans4.ltrans.o
                                                  /tmp/ccxHBcHG.ltrans2.ltrans.o
                                                  build/obj/rt_test_sequence_010.o (symbol from plugin)
                                                  build/obj/rt_test_root.o (symbol from plugin)
chThdYield                                        /tmp/ccxHBcHG.ltrans8.ltrans.o
                                                  build/obj/chthreads.o (symbol from plugin)
                                                  /tmp/ccxHBcHG.ltrans4.ltrans.o
                                                  build/obj/rt_test_sequence_010.o (symbol from plugin)
chVTDoResetI                                      /tmp/ccxHBcHG.ltrans8.ltrans.o
                                                  build/obj/chvt.o (symbol from plugin)
                                                  /tmp/ccxHBcHG.ltrans9.ltrans.o
                                                  /tmp/ccxHBcHG.ltrans4.ltrans.o
                                                  build/obj/rt_test_sequence_010.o (symbol from plugin)
                                                  build/obj/rt_test_sequence_002.o (symbol from plugin)
                                                  build/obj/chschd.o (symbol from plugin)
chVTDoSetI                                        /tmp/ccxHBcHG.ltrans8.ltrans.o
                                                  build/obj/chvt.o (symbol from plugin)
                                                  /tmp/ccxHBcHG.ltrans9.ltrans.o
                                                  /tmp/ccxHBcHG.ltrans4.ltrans.o
                                                  build/obj/rt_test_sequence_010.o (symbol from plugin)
                                                  build/obj/rt_test_sequence_002.o (symbol from plugin)
                                                  build/obj/chschd.o (symbol from plugin)
ch_debug                                          build/obj/chregistry.o (symbol from plugin)
                                                  build/obj/chsys.o (symbol from plugin)
ch_factory                                        /tmp/ccxHBcHG.ltrans0.ltrans.o
                                                  build/obj/chfactory.o (symbol from plugin)
                                                  /tmp/ccxHBcHG.ltrans6.ltrans.o
                                                  /tmp/ccxHBcHG.ltrans2.ltrans.o
ch_idle_thread_wa                                 build/obj/chsys.o (symbol from plugin)
ch_memcore                                        /tmp/ccxHBcHG.ltrans6.ltrans.o
                                                  build/obj/chmemcore.o (symbol from plugin)
                                                  /tmp/ccxHBcHG.ltrans8.ltrans.o
                                                  /tmp/ccxHBcHG.ltrans2.ltrans.o
default_heap.lto_priv.85                          /tmp/ccxHBcHG.ltrans0.ltrans.o
                                                  /tmp/ccxHBcHG.ltrans6.ltrans.o
                                                  /tmp/ccxHBcHG.ltrans2.ltrans.o
dyn_create_object_heap.lto_priv.82                /tmp/ccxHBcHG.ltrans2.ltrans.o
                                                  /tmp/ccxHBcHG.ltrans0.ltrans.o
dyn_create_object_pool.lto_priv.80                /tmp/ccxHBcHG.ltrans2.ltrans.o
                                                  /tmp/ccxHBcHG.ltrans0.ltrans.o
dyn_find_object.lto_priv.81                       /tmp/ccxHBcHG.ltrans2.ltrans.o
                                                  /tmp/ccxHBcHG.ltrans0.ltrans.o
dyn_thread1.lto_priv.79                           /tmp/ccxHBcHG.ltrans1.ltrans.o
                                                  /tmp/ccxHBcHG.ltrans0.ltrans.o
gmp1.lto_priv.190                                 /tmp/ccxHBcHG.ltrans0.ltrans.o
                                                  /tmp/ccxHBcHG.ltrans3.ltrans.o
halInit                                           build/obj/hal.o (symbol from plugin)
                                                  build/obj/main.o (symbol from plugin)
hal_lld_init                                      build/obj/hal_lld.o (symbol from plugin)
                                                  build/obj/hal.o (symbol from plugin)
heap1.lto_priv.194                                /tmp/ccxHBcHG.ltrans0.ltrans.o
                                                  /tmp/ccxHBcHG.ltrans1.ltrans.o
ibqGetEmptyBufferI                                build/obj/hal_buffers.o (symbol from plugin)
ibqGetFullBufferTimeout                           build/obj/hal_buffers.o (symbol from plugin)
ibqGetFullBufferTimeoutS                          build/obj/hal_buffers.o (symbol from plugin)
ibqGetTimeout                                     build/obj/hal_buffers.o (symbol from plugin)
ibqObjectInit                                     build/obj/hal_buffers.o (symbol from plugin)
ibqPostFullBufferI                                build/obj/hal_buffers.o (symbol from plugin)
ibqReadTimeout                                    build/obj/hal_buffers.o (symbol from plugin)
ibqReleaseEmptyBuffer                             build/obj/hal_buffers.o (symbol from plugin)
ibqReleaseEmptyBufferS                            build/obj/hal_buffers.o (symbol from plugin)
ibqResetI                                         build/obj/hal_buffers.o (symbol from plugin)
iqGetI                                            build/obj/hal_queues.o (symbol from plugin)
iqGetTimeout                                      build/obj/hal_queues.o (symbol from plugin)
                                                  build/obj/hal_serial.o (symbol from plugin)
iqObjectInit                                      build/obj/hal_queues.o (symbol from plugin)
                                                  build/obj/hal_serial_lld.o (symbol from plugin)
iqPutI                                            build/obj/hal_queues.o (symbol from plugin)
                                                  build/obj/hal_serial.o (symbol from plugin)
iqReadI                                           build/obj/hal_queues.o (symbol from plugin)
iqReadTimeout                                     build/obj/hal_queues.o (symbol from plugin)
                                                  build/obj/hal_serial.o (symbol from plugin)
iqResetI                                          build/obj/hal_queues.o (symbol from plugin)
                                                  build/obj/hal_serial.o (symbol from plugin)
irqDeinit                                         build/obj/stm32_isr.o (symbol from plugin)
irqInit                                           build/obj/stm32_isr.o (symbol from plugin)
                                                  build/obj/hal_lld.o (symbol from plugin)
m1.lto_priv.199                                   /tmp/ccxHBcHG.ltrans0.ltrans.o
                                                  /tmp/ccxHBcHG.ltrans5.ltrans.o
                                                  /tmp/ccxHBcHG.ltrans1.ltrans.o
m2.lto_priv.201                                   /tmp/ccxHBcHG.ltrans1.ltrans.o
                                                  /tmp/ccxHBcHG.ltrans5.ltrans.o
main                                              /tmp/ccxHBcHG.ltrans6.ltrans.o
                                                  build/obj/main.o (symbol from plugin)
                                                  build/obj/crt0_v7m.o
mb1.lto_priv.191                                  /tmp/ccxHBcHG.ltrans0.ltrans.o
                                                  /tmp/ccxHBcHG.ltrans4.ltrans.o
                                                  /tmp/ccxHBcHG.ltrans3.ltrans.o
mb_buffer.lto_priv.192                            /tmp/ccxHBcHG.ltrans0.ltrans.o
                                                  /tmp/ccxHBcHG.ltrans3.ltrans.o
memcpy                                            /home/ksg/bin/gcc-arm/gcc-arm-none-eabi-6-2017-q2-update/bin/../lib/gcc/arm-none-eabi/6.3.1/../../../../arm-none-eabi/lib/thumb/v7e-m/libg.a(lib_a-memcpy.o)
                                                  /tmp/ccxHBcHG.ltrans7.ltrans.o
memset                                            /home/ksg/bin/gcc-arm/gcc-arm-none-eabi-6-2017-q2-update/bin/../lib/gcc/arm-none-eabi/6.3.1/../../../../arm-none-eabi/lib/thumb/v7e-m/libg.a(lib_a-memset.o)
                                                  /tmp/ccxHBcHG.ltrans0.ltrans.o
mp1.lto_priv.193                                  /tmp/ccxHBcHG.ltrans0.ltrans.o
                                                  /tmp/ccxHBcHG.ltrans4.ltrans.o
notify1.lto_priv.86                               /tmp/ccxHBcHG.ltrans7.ltrans.o
                                                  /tmp/ccxHBcHG.ltrans6.ltrans.o
nvicClearPending                                  build/obj/nvic.o (symbol from plugin)
nvicDisableVector                                 build/obj/nvic.o (symbol from plugin)
                                                  build/obj/stm32_isr.o (symbol from plugin)
nvicEnableVector                                  build/obj/nvic.o (symbol from plugin)
                                                  build/obj/hal_serial_lld.o (symbol from plugin)
                                                  build/obj/hal_st_lld.o (symbol from plugin)
                                                  build/obj/stm32_isr.o (symbol from plugin)
nvicSetSystemHandlerPriority                      build/obj/nvic.o (symbol from plugin)
obqFlush                                          build/obj/hal_buffers.o (symbol from plugin)
obqGetEmptyBufferTimeout                          build/obj/hal_buffers.o (symbol from plugin)
obqGetEmptyBufferTimeoutS                         build/obj/hal_buffers.o (symbol from plugin)
obqGetFullBufferI                                 build/obj/hal_buffers.o (symbol from plugin)
obqObjectInit                                     build/obj/hal_buffers.o (symbol from plugin)
obqPostFullBuffer                                 build/obj/hal_buffers.o (symbol from plugin)
obqPostFullBufferS                                build/obj/hal_buffers.o (symbol from plugin)
obqPutTimeout                                     build/obj/hal_buffers.o (symbol from plugin)
obqReleaseEmptyBufferI                            build/obj/hal_buffers.o (symbol from plugin)
obqResetI                                         build/obj/hal_buffers.o (symbol from plugin)
obqTryFlushI                                      build/obj/hal_buffers.o (symbol from plugin)
obqWriteTimeout                                   build/obj/hal_buffers.o (symbol from plugin)
oqGetI                                            build/obj/hal_queues.o (symbol from plugin)
                                                  build/obj/hal_serial_lld.o (symbol from plugin)
                                                  build/obj/hal_serial.o (symbol from plugin)
oqObjectInit                                      build/obj/hal_queues.o (symbol from plugin)
                                                  build/obj/hal_serial_lld.o (symbol from plugin)
oqPutI                                            build/obj/hal_queues.o (symbol from plugin)
oqPutTimeout                                      build/obj/hal_queues.o (symbol from plugin)
                                                  build/obj/hal_serial.o (symbol from plugin)
oqResetI                                          build/obj/hal_queues.o (symbol from plugin)
                                                  build/obj/hal_serial.o (symbol from plugin)
oqWriteI                                          build/obj/hal_queues.o (symbol from plugin)
oqWriteTimeout                                    build/obj/hal_queues.o (symbol from plugin)
                                                  build/obj/hal_serial.o (symbol from plugin)
oslib_test_001_001_execute.lto_priv.172           /tmp/ccxHBcHG.ltrans4.ltrans.o
                                                  /tmp/ccxHBcHG.ltrans6.ltrans.o
oslib_test_001_001_setup.lto_priv.170             /tmp/ccxHBcHG.ltrans4.ltrans.o
                                                  /tmp/ccxHBcHG.ltrans6.ltrans.o
oslib_test_001_001_teardown.lto_priv.171          /tmp/ccxHBcHG.ltrans4.ltrans.o
                                                  /tmp/ccxHBcHG.ltrans6.ltrans.o
oslib_test_001_002_execute.lto_priv.175           /tmp/ccxHBcHG.ltrans3.ltrans.o
                                                  /tmp/ccxHBcHG.ltrans6.ltrans.o
oslib_test_001_002_setup.lto_priv.173             /tmp/ccxHBcHG.ltrans4.ltrans.o
                                                  /tmp/ccxHBcHG.ltrans6.ltrans.o
oslib_test_001_002_teardown.lto_priv.174          /tmp/ccxHBcHG.ltrans4.ltrans.o
                                                  /tmp/ccxHBcHG.ltrans6.ltrans.o
oslib_test_001_003_execute.lto_priv.178           /tmp/ccxHBcHG.ltrans3.ltrans.o
                                                  /tmp/ccxHBcHG.ltrans6.ltrans.o
oslib_test_001_003_setup.lto_priv.176             /tmp/ccxHBcHG.ltrans3.ltrans.o
                                                  /tmp/ccxHBcHG.ltrans6.ltrans.o
                                                  /tmp/ccxHBcHG.ltrans4.ltrans.o
oslib_test_001_003_teardown.lto_priv.177          /tmp/ccxHBcHG.ltrans3.ltrans.o
                                                  /tmp/ccxHBcHG.ltrans6.ltrans.o
                                                  /tmp/ccxHBcHG.ltrans4.ltrans.o
oslib_test_002_001_execute.lto_priv.180           /tmp/ccxHBcHG.ltrans3.ltrans.o
                                                  /tmp/ccxHBcHG.ltrans6.ltrans.o
oslib_test_002_001_setup.lto_priv.179             /tmp/ccxHBcHG.ltrans3.ltrans.o
                                                  /tmp/ccxHBcHG.ltrans6.ltrans.o
oslib_test_002_002_execute.lto_priv.182           /tmp/ccxHBcHG.ltrans3.ltrans.o
                                                  /tmp/ccxHBcHG.ltrans6.ltrans.o
oslib_test_002_002_setup.lto_priv.181             /tmp/ccxHBcHG.ltrans3.ltrans.o
                                                  /tmp/ccxHBcHG.ltrans6.ltrans.o
oslib_test_002_003_execute.lto_priv.184           /tmp/ccxHBcHG.ltrans3.ltrans.o
                                                  /tmp/ccxHBcHG.ltrans6.ltrans.o
oslib_test_002_003_setup.lto_priv.183             /tmp/ccxHBcHG.ltrans3.ltrans.o
                                                  /tmp/ccxHBcHG.ltrans6.ltrans.o
oslib_test_003_001_execute.lto_priv.186           /tmp/ccxHBcHG.ltrans3.ltrans.o
                                                  /tmp/ccxHBcHG.ltrans6.ltrans.o
oslib_test_003_001_setup.lto_priv.185             /tmp/ccxHBcHG.ltrans3.ltrans.o
                                                  /tmp/ccxHBcHG.ltrans6.ltrans.o
oslib_test_003_002_execute.lto_priv.187           /tmp/ccxHBcHG.ltrans3.ltrans.o
                                                  /tmp/ccxHBcHG.ltrans6.ltrans.o
oslib_test_004_001_execute.lto_priv.189           /tmp/ccxHBcHG.ltrans3.ltrans.o
                                                  /tmp/ccxHBcHG.ltrans6.ltrans.o
oslib_test_004_001_teardown.lto_priv.188          /tmp/ccxHBcHG.ltrans3.ltrans.o
                                                  /tmp/ccxHBcHG.ltrans6.ltrans.o
oslib_test_sequence_001                           build/obj/oslib_test_sequence_001.o (symbol from plugin)
                                                  build/obj/oslib_test_root.o (symbol from plugin)
oslib_test_sequence_001_array                     build/obj/oslib_test_sequence_001.o (symbol from plugin)
oslib_test_sequence_002                           build/obj/oslib_test_sequence_002.o (symbol from plugin)
                                                  build/obj/oslib_test_root.o (symbol from plugin)
oslib_test_sequence_002_array                     build/obj/oslib_test_sequence_002.o (symbol from plugin)
oslib_test_sequence_003                           build/obj/oslib_test_sequence_003.o (symbol from plugin)
                                                  build/obj/oslib_test_root.o (symbol from plugin)
oslib_test_sequence_003_array                     build/obj/oslib_test_sequence_003.o (symbol from plugin)
oslib_test_sequence_004                           build/obj/oslib_test_sequence_004.o (symbol from plugin)
                                                  build/obj/oslib_test_root.o (symbol from plugin)
oslib_test_sequence_004_array                     build/obj/oslib_test_sequence_004.o (symbol from plugin)
oslib_test_suite                                  build/obj/oslib_test_root.o (symbol from plugin)
                                                  build/obj/main.o (symbol from plugin)
oslib_test_suite_array                            build/obj/oslib_test_root.o (symbol from plugin)
palReadBus                                        build/obj/hal_pal.o (symbol from plugin)
palSetBusMode                                     build/obj/hal_pal.o (symbol from plugin)
palSetLineCallbackI                               build/obj/hal_pal.o (symbol from plugin)
palSetPadCallbackI                                build/obj/hal_pal.o (symbol from plugin)
palWaitLineTimeout                                build/obj/hal_pal.o (symbol from plugin)
palWaitLineTimeoutS                               build/obj/hal_pal.o (symbol from plugin)
palWaitPadTimeout                                 build/obj/hal_pal.o (symbol from plugin)
palWaitPadTimeoutS                                build/obj/hal_pal.o (symbol from plugin)
palWriteBus                                       build/obj/hal_pal.o (symbol from plugin)
print_line.lto_priv.83                            /tmp/ccxHBcHG.ltrans2.ltrans.o
                                                  /tmp/ccxHBcHG.ltrans0.ltrans.o
rt_test_001_001_execute.lto_priv.97               /tmp/ccxHBcHG.ltrans2.ltrans.o
                                                  /tmp/ccxHBcHG.ltrans6.ltrans.o
rt_test_001_002_execute.lto_priv.98               /tmp/ccxHBcHG.ltrans2.ltrans.o
                                                  /tmp/ccxHBcHG.ltrans6.ltrans.o
rt_test_001_003_execute.lto_priv.99               /tmp/ccxHBcHG.ltrans2.ltrans.o
                                                  /tmp/ccxHBcHG.ltrans6.ltrans.o
rt_test_002_001_execute.lto_priv.100              /tmp/ccxHBcHG.ltrans9.ltrans.o
                                                  /tmp/ccxHBcHG.ltrans6.ltrans.o
rt_test_002_002_execute.lto_priv.101              /tmp/ccxHBcHG.ltrans9.ltrans.o
                                                  /tmp/ccxHBcHG.ltrans6.ltrans.o
rt_test_002_003_execute.lto_priv.102              /tmp/ccxHBcHG.ltrans9.ltrans.o
                                                  /tmp/ccxHBcHG.ltrans6.ltrans.o
rt_test_002_004_execute.lto_priv.103              /tmp/ccxHBcHG.ltrans9.ltrans.o
                                                  /tmp/ccxHBcHG.ltrans6.ltrans.o
rt_test_003_001_execute.lto_priv.104              /tmp/ccxHBcHG.ltrans9.ltrans.o
                                                  /tmp/ccxHBcHG.ltrans6.ltrans.o
rt_test_003_002_execute.lto_priv.105              /tmp/ccxHBcHG.ltrans9.ltrans.o
                                                  /tmp/ccxHBcHG.ltrans6.ltrans.o
rt_test_003_003_execute.lto_priv.106              /tmp/ccxHBcHG.ltrans9.ltrans.o
                                                  /tmp/ccxHBcHG.ltrans6.ltrans.o
rt_test_003_004_execute.lto_priv.107              /tmp/ccxHBcHG.ltrans9.ltrans.o
                                                  /tmp/ccxHBcHG.ltrans6.ltrans.o
rt_test_004_001_execute.lto_priv.109              /tmp/ccxHBcHG.ltrans9.ltrans.o
                                                  /tmp/ccxHBcHG.ltrans6.ltrans.o
rt_test_004_001_setup.lto_priv.108                /tmp/ccxHBcHG.ltrans9.ltrans.o
                                                  /tmp/ccxHBcHG.ltrans6.ltrans.o
rt_test_005_001_execute.lto_priv.112              /tmp/ccxHBcHG.ltrans5.ltrans.o
                                                  /tmp/ccxHBcHG.ltrans6.ltrans.o
rt_test_005_001_setup.lto_priv.110                /tmp/ccxHBcHG.ltrans5.ltrans.o
                                                  /tmp/ccxHBcHG.ltrans6.ltrans.o
rt_test_005_001_teardown.lto_priv.111             /tmp/ccxHBcHG.ltrans5.ltrans.o
                                                  /tmp/ccxHBcHG.ltrans6.ltrans.o
rt_test_005_002_execute.lto_priv.114              /tmp/ccxHBcHG.ltrans5.ltrans.o
                                                  /tmp/ccxHBcHG.ltrans6.ltrans.o
rt_test_005_002_setup.lto_priv.113                /tmp/ccxHBcHG.ltrans5.ltrans.o
                                                  /tmp/ccxHBcHG.ltrans6.ltrans.o
rt_test_005_003_execute.lto_priv.116              /tmp/ccxHBcHG.ltrans5.ltrans.o
                                                  /tmp/ccxHBcHG.ltrans6.ltrans.o
rt_test_005_003_setup.lto_priv.115                /tmp/ccxHBcHG.ltrans5.ltrans.o
                                                  /tmp/ccxHBcHG.ltrans6.ltrans.o
rt_test_005_004_execute.lto_priv.118              /tmp/ccxHBcHG.ltrans5.ltrans.o
                                                  /tmp/ccxHBcHG.ltrans6.ltrans.o
rt_test_005_004_setup.lto_priv.117                /tmp/ccxHBcHG.ltrans5.ltrans.o
                                                  /tmp/ccxHBcHG.ltrans6.ltrans.o
rt_test_005_005_execute.lto_priv.121              /tmp/ccxHBcHG.ltrans5.ltrans.o
                                                  /tmp/ccxHBcHG.ltrans6.ltrans.o
rt_test_005_005_setup.lto_priv.119                /tmp/ccxHBcHG.ltrans5.ltrans.o
                                                  /tmp/ccxHBcHG.ltrans6.ltrans.o
rt_test_005_005_teardown.lto_priv.120             /tmp/ccxHBcHG.ltrans5.ltrans.o
                                                  /tmp/ccxHBcHG.ltrans6.ltrans.o
rt_test_005_006_execute.lto_priv.123              /tmp/ccxHBcHG.ltrans5.ltrans.o
                                                  /tmp/ccxHBcHG.ltrans6.ltrans.o
rt_test_005_006_teardown.lto_priv.122             /tmp/ccxHBcHG.ltrans5.ltrans.o
                                                  /tmp/ccxHBcHG.ltrans6.ltrans.o
rt_test_006_001_execute.lto_priv.125              /tmp/ccxHBcHG.ltrans5.ltrans.o
                                                  /tmp/ccxHBcHG.ltrans6.ltrans.o
rt_test_006_001_setup.lto_priv.124                /tmp/ccxHBcHG.ltrans5.ltrans.o
                                                  /tmp/ccxHBcHG.ltrans6.ltrans.o
rt_test_006_004_execute.lto_priv.128              /tmp/ccxHBcHG.ltrans5.ltrans.o
                                                  /tmp/ccxHBcHG.ltrans6.ltrans.o
rt_test_006_004_setup.lto_priv.126                /tmp/ccxHBcHG.ltrans5.ltrans.o
                                                  /tmp/ccxHBcHG.ltrans6.ltrans.o
rt_test_006_004_teardown.lto_priv.127             /tmp/ccxHBcHG.ltrans5.ltrans.o
                                                  /tmp/ccxHBcHG.ltrans6.ltrans.o
rt_test_006_005_execute.lto_priv.130              /tmp/ccxHBcHG.ltrans5.ltrans.o
                                                  /tmp/ccxHBcHG.ltrans6.ltrans.o
rt_test_006_005_setup.lto_priv.129                /tmp/ccxHBcHG.ltrans5.ltrans.o
                                                  /tmp/ccxHBcHG.ltrans6.ltrans.o
rt_test_006_007_execute.lto_priv.132              /tmp/ccxHBcHG.ltrans1.ltrans.o
                                                  /tmp/ccxHBcHG.ltrans6.ltrans.o
rt_test_006_007_setup.lto_priv.131                /tmp/ccxHBcHG.ltrans5.ltrans.o
                                                  /tmp/ccxHBcHG.ltrans6.ltrans.o
rt_test_006_008_execute.lto_priv.134              /tmp/ccxHBcHG.ltrans1.ltrans.o
                                                  /tmp/ccxHBcHG.ltrans6.ltrans.o
rt_test_006_008_setup.lto_priv.133                /tmp/ccxHBcHG.ltrans1.ltrans.o
                                                  /tmp/ccxHBcHG.ltrans6.ltrans.o
                                                  /tmp/ccxHBcHG.ltrans5.ltrans.o
rt_test_006_009_execute.lto_priv.136              /tmp/ccxHBcHG.ltrans1.ltrans.o
                                                  /tmp/ccxHBcHG.ltrans6.ltrans.o
rt_test_006_009_setup.lto_priv.135                /tmp/ccxHBcHG.ltrans1.ltrans.o
                                                  /tmp/ccxHBcHG.ltrans6.ltrans.o
rt_test_007_001_execute.lto_priv.137              /tmp/ccxHBcHG.ltrans1.ltrans.o
                                                  /tmp/ccxHBcHG.ltrans6.ltrans.o
rt_test_008_001_execute.lto_priv.138              /tmp/ccxHBcHG.ltrans1.ltrans.o
                                                  /tmp/ccxHBcHG.ltrans6.ltrans.o
rt_test_008_002_execute.lto_priv.140              /tmp/ccxHBcHG.ltrans1.ltrans.o
                                                  /tmp/ccxHBcHG.ltrans6.ltrans.o
rt_test_008_002_setup.lto_priv.139                /tmp/ccxHBcHG.ltrans1.ltrans.o
                                                  /tmp/ccxHBcHG.ltrans6.ltrans.o
rt_test_008_003_execute.lto_priv.142              /tmp/ccxHBcHG.ltrans1.ltrans.o
                                                  /tmp/ccxHBcHG.ltrans6.ltrans.o
rt_test_008_003_setup.lto_priv.141                /tmp/ccxHBcHG.ltrans1.ltrans.o
                                                  /tmp/ccxHBcHG.ltrans6.ltrans.o
rt_test_008_004_execute.lto_priv.144              /tmp/ccxHBcHG.ltrans1.ltrans.o
                                                  /tmp/ccxHBcHG.ltrans6.ltrans.o
rt_test_008_004_setup.lto_priv.143                /tmp/ccxHBcHG.ltrans1.ltrans.o
                                                  /tmp/ccxHBcHG.ltrans6.ltrans.o
rt_test_008_005_execute.lto_priv.146              /tmp/ccxHBcHG.ltrans1.ltrans.o
                                                  /tmp/ccxHBcHG.ltrans6.ltrans.o
rt_test_008_005_setup.lto_priv.145                /tmp/ccxHBcHG.ltrans1.ltrans.o
                                                  /tmp/ccxHBcHG.ltrans6.ltrans.o
rt_test_008_006_execute.lto_priv.148              /tmp/ccxHBcHG.ltrans1.ltrans.o
                                                  /tmp/ccxHBcHG.ltrans6.ltrans.o
rt_test_008_006_setup.lto_priv.147                /tmp/ccxHBcHG.ltrans1.ltrans.o
                                                  /tmp/ccxHBcHG.ltrans6.ltrans.o
rt_test_008_007_execute.lto_priv.150              /tmp/ccxHBcHG.ltrans1.ltrans.o
                                                  /tmp/ccxHBcHG.ltrans6.ltrans.o
rt_test_008_007_setup.lto_priv.149                /tmp/ccxHBcHG.ltrans1.ltrans.o
                                                  /tmp/ccxHBcHG.ltrans6.ltrans.o
rt_test_009_001_execute.lto_priv.152              /tmp/ccxHBcHG.ltrans1.ltrans.o
                                                  /tmp/ccxHBcHG.ltrans6.ltrans.o
rt_test_009_001_setup.lto_priv.151                /tmp/ccxHBcHG.ltrans1.ltrans.o
                                                  /tmp/ccxHBcHG.ltrans6.ltrans.o
rt_test_009_002_execute.lto_priv.154              /tmp/ccxHBcHG.ltrans4.ltrans.o
                                                  /tmp/ccxHBcHG.ltrans6.ltrans.o
rt_test_009_002_setup.lto_priv.153                /tmp/ccxHBcHG.ltrans4.ltrans.o
                                                  /tmp/ccxHBcHG.ltrans6.ltrans.o
rt_test_010_001_execute.lto_priv.155              /tmp/ccxHBcHG.ltrans4.ltrans.o
                                                  /tmp/ccxHBcHG.ltrans6.ltrans.o
rt_test_010_002_execute.lto_priv.156              /tmp/ccxHBcHG.ltrans4.ltrans.o
                                                  /tmp/ccxHBcHG.ltrans6.ltrans.o
rt_test_010_003_execute.lto_priv.157              /tmp/ccxHBcHG.ltrans4.ltrans.o
                                                  /tmp/ccxHBcHG.ltrans6.ltrans.o
rt_test_010_004_execute.lto_priv.158              /tmp/ccxHBcHG.ltrans4.ltrans.o
                                                  /tmp/ccxHBcHG.ltrans6.ltrans.o
rt_test_010_005_execute.lto_priv.159              /tmp/ccxHBcHG.ltrans4.ltrans.o
                                                  /tmp/ccxHBcHG.ltrans6.ltrans.o
rt_test_010_006_execute.lto_priv.160              /tmp/ccxHBcHG.ltrans4.ltrans.o
                                                  /tmp/ccxHBcHG.ltrans6.ltrans.o
rt_test_010_007_execute.lto_priv.162              /tmp/ccxHBcHG.ltrans4.ltrans.o
                                                  /tmp/ccxHBcHG.ltrans6.ltrans.o
rt_test_010_007_setup.lto_priv.161                /tmp/ccxHBcHG.ltrans4.ltrans.o
                                                  /tmp/ccxHBcHG.ltrans6.ltrans.o
rt_test_010_008_execute.lto_priv.163              /tmp/ccxHBcHG.ltrans4.ltrans.o
                                                  /tmp/ccxHBcHG.ltrans6.ltrans.o
rt_test_010_009_execute.lto_priv.164              /tmp/ccxHBcHG.ltrans4.ltrans.o
                                                  /tmp/ccxHBcHG.ltrans6.ltrans.o
rt_test_010_010_execute.lto_priv.166              /tmp/ccxHBcHG.ltrans4.ltrans.o
                                                  /tmp/ccxHBcHG.ltrans6.ltrans.o
rt_test_010_010_setup.lto_priv.165                /tmp/ccxHBcHG.ltrans4.ltrans.o
                                                  /tmp/ccxHBcHG.ltrans6.ltrans.o
rt_test_010_011_execute.lto_priv.168              /tmp/ccxHBcHG.ltrans4.ltrans.o
                                                  /tmp/ccxHBcHG.ltrans6.ltrans.o
rt_test_010_011_setup.lto_priv.167                /tmp/ccxHBcHG.ltrans4.ltrans.o
                                                  /tmp/ccxHBcHG.ltrans6.ltrans.o
rt_test_010_012_execute.lto_priv.169              /tmp/ccxHBcHG.ltrans4.ltrans.o
                                                  /tmp/ccxHBcHG.ltrans6.ltrans.o
rt_test_sequence_001                              build/obj/rt_test_sequence_001.o (symbol from plugin)
                                                  build/obj/rt_test_root.o (symbol from plugin)
rt_test_sequence_001_array                        build/obj/rt_test_sequence_001.o (symbol from plugin)
rt_test_sequence_002                              build/obj/rt_test_sequence_002.o (symbol from plugin)
                                                  build/obj/rt_test_root.o (symbol from plugin)
rt_test_sequence_002_array                        build/obj/rt_test_sequence_002.o (symbol from plugin)
rt_test_sequence_003                              build/obj/rt_test_sequence_003.o (symbol from plugin)
                                                  build/obj/rt_test_root.o (symbol from plugin)
rt_test_sequence_003_array                        build/obj/rt_test_sequence_003.o (symbol from plugin)
rt_test_sequence_004                              build/obj/rt_test_sequence_004.o (symbol from plugin)
                                                  build/obj/rt_test_root.o (symbol from plugin)
rt_test_sequence_004_array                        build/obj/rt_test_sequence_004.o (symbol from plugin)
rt_test_sequence_005                              build/obj/rt_test_sequence_005.o (symbol from plugin)
                                                  build/obj/rt_test_root.o (symbol from plugin)
rt_test_sequence_005_array                        build/obj/rt_test_sequence_005.o (symbol from plugin)
rt_test_sequence_006                              build/obj/rt_test_sequence_006.o (symbol from plugin)
                                                  build/obj/rt_test_root.o (symbol from plugin)
rt_test_sequence_006_array                        build/obj/rt_test_sequence_006.o (symbol from plugin)
rt_test_sequence_007                              build/obj/rt_test_sequence_007.o (symbol from plugin)
                                                  build/obj/rt_test_root.o (symbol from plugin)
rt_test_sequence_007_array                        build/obj/rt_test_sequence_007.o (symbol from plugin)
rt_test_sequence_008                              build/obj/rt_test_sequence_008.o (symbol from plugin)
                                                  build/obj/rt_test_root.o (symbol from plugin)
rt_test_sequence_008_array                        build/obj/rt_test_sequence_008.o (symbol from plugin)
rt_test_sequence_009                              build/obj/rt_test_sequence_009.o (symbol from plugin)
                                                  build/obj/rt_test_root.o (symbol from plugin)
rt_test_sequence_009_array                        build/obj/rt_test_sequence_009.o (symbol from plugin)
rt_test_sequence_010                              build/obj/rt_test_sequence_010.o (symbol from plugin)
                                                  build/obj/rt_test_root.o (symbol from plugin)
rt_test_sequence_010_array                        build/obj/rt_test_sequence_010.o (symbol from plugin)
rt_test_suite                                     build/obj/rt_test_root.o (symbol from plugin)
                                                  build/obj/main.o (symbol from plugin)
rt_test_suite_array                               build/obj/rt_test_root.o (symbol from plugin)
sdControl                                         build/obj/hal_serial.o (symbol from plugin)
sdGetWouldBlock                                   build/obj/hal_serial.o (symbol from plugin)
sdIncomingDataI                                   build/obj/hal_serial.o (symbol from plugin)
                                                  build/obj/hal_serial_lld.o (symbol from plugin)
sdInit                                            build/obj/hal_serial.o (symbol from plugin)
                                                  build/obj/hal.o (symbol from plugin)
sdObjectInit                                      build/obj/hal_serial.o (symbol from plugin)
                                                  build/obj/hal_serial_lld.o (symbol from plugin)
sdPutWouldBlock                                   build/obj/hal_serial.o (symbol from plugin)
sdRequestDataI                                    build/obj/hal_serial.o (symbol from plugin)
sdStart                                           build/obj/hal_serial.o (symbol from plugin)
                                                  build/obj/main.o (symbol from plugin)
sdStop                                            build/obj/hal_serial.o (symbol from plugin)
sd_lld_init                                       build/obj/hal_serial_lld.o (symbol from plugin)
                                                  build/obj/hal_serial.o (symbol from plugin)
sd_lld_start                                      build/obj/hal_serial_lld.o (symbol from plugin)
                                                  build/obj/hal_serial.o (symbol from plugin)
sd_lld_stop                                       build/obj/hal_serial_lld.o (symbol from plugin)
                                                  build/obj/hal_serial.o (symbol from plugin)
sem1.lto_priv.205                                 /tmp/ccxHBcHG.ltrans0.ltrans.o
                                                  /tmp/ccxHBcHG.ltrans5.ltrans.o
stGetAlarm                                        build/obj/hal_st.o (symbol from plugin)
stInit                                            build/obj/hal_st.o (symbol from plugin)
                                                  build/obj/hal.o (symbol from plugin)
stSetAlarm                                        build/obj/hal_st.o (symbol from plugin)
                                                  build/obj/chvt.o (symbol from plugin)
                                                  build/obj/chsys.o (symbol from plugin)
stStartAlarm                                      build/obj/hal_st.o (symbol from plugin)
                                                  build/obj/chvt.o (symbol from plugin)
stStopAlarm                                       build/obj/hal_st.o (symbol from plugin)
                                                  build/obj/chvt.o (symbol from plugin)
                                                  build/obj/chsys.o (symbol from plugin)
st_lld_init                                       build/obj/hal_st_lld.o (symbol from plugin)
                                                  build/obj/hal_st.o (symbol from plugin)
stm32_clock_init                                  build/obj/hal_lld.o (symbol from plugin)
                                                  build/obj/board.o (symbol from plugin)
strncmp                                           /home/ksg/bin/gcc-arm/gcc-arm-none-eabi-6-2017-q2-update/bin/../lib/gcc/arm-none-eabi/6.3.1/../../../../arm-none-eabi/lib/thumb/v7e-m/libg.a(lib_a-strncmp.o)
                                                  /tmp/ccxHBcHG.ltrans2.ltrans.o
strncpy                                           /home/ksg/bin/gcc-arm/gcc-arm-none-eabi-6-2017-q2-update/bin/../lib/gcc/arm-none-eabi/6.3.1/../../../../arm-none-eabi/lib/thumb/v7e-m/libg.a(lib_a-strncpy.o)
                                                  /tmp/ccxHBcHG.ltrans2.ltrans.o
test_buffer                                       /tmp/ccxHBcHG.ltrans4.ltrans.o
                                                  build/obj/rt_test_root.o (symbol from plugin)
                                                  /tmp/ccxHBcHG.ltrans9.ltrans.o
                                                  /tmp/ccxHBcHG.ltrans5.ltrans.o
                                                  /tmp/ccxHBcHG.ltrans1.ltrans.o
                                                  build/obj/rt_test_sequence_009.o (symbol from plugin)
test_chp.lto_priv.208                             /tmp/ccxHBcHG.ltrans0.ltrans.o
                                                  /tmp/ccxHBcHG.ltrans2.ltrans.o
test_emit_token                                   /tmp/ccxHBcHG.ltrans2.ltrans.o
                                                  build/obj/ch_test.o (symbol from plugin)
                                                  /tmp/ccxHBcHG.ltrans9.ltrans.o
                                                  /tmp/ccxHBcHG.ltrans5.ltrans.o
                                                  /tmp/ccxHBcHG.ltrans4.ltrans.o
                                                  /tmp/ccxHBcHG.ltrans3.ltrans.o
                                                  /tmp/ccxHBcHG.ltrans1.ltrans.o
                                                  build/obj/oslib_test_sequence_001.o (symbol from plugin)
                                                  build/obj/rt_test_sequence_009.o (symbol from plugin)
                                                  build/obj/rt_test_sequence_008.o (symbol from plugin)
                                                  build/obj/rt_test_sequence_007.o (symbol from plugin)
                                                  build/obj/rt_test_sequence_006.o (symbol from plugin)
                                                  build/obj/rt_test_sequence_005.o (symbol from plugin)
                                                  build/obj/rt_test_sequence_004.o (symbol from plugin)
                                                  build/obj/rt_test_sequence_003.o (symbol from plugin)
test_emit_token_i                                 build/obj/ch_test.o (symbol from plugin)
test_execute                                      build/obj/ch_test.o (symbol from plugin)
                                                  build/obj/main.o (symbol from plugin)
test_execute.constprop.1                          /tmp/ccxHBcHG.ltrans0.ltrans.o
                                                  /tmp/ccxHBcHG.ltrans6.ltrans.o
test_failure_message.lto_priv.207                 /tmp/ccxHBcHG.ltrans0.ltrans.o
                                                  /tmp/ccxHBcHG.ltrans2.ltrans.o
test_global_fail                                  /tmp/ccxHBcHG.ltrans0.ltrans.o
                                                  build/obj/ch_test.o (symbol from plugin)
                                                  /tmp/ccxHBcHG.ltrans2.ltrans.o
test_local_fail.lto_priv.206                      /tmp/ccxHBcHG.ltrans0.ltrans.o
                                                  /tmp/ccxHBcHG.ltrans2.ltrans.o
test_print                                        /tmp/ccxHBcHG.ltrans2.ltrans.o
                                                  build/obj/ch_test.o (symbol from plugin)
                                                  /tmp/ccxHBcHG.ltrans4.ltrans.o
                                                  build/obj/rt_test_sequence_010.o (symbol from plugin)
                                                  build/obj/rt_test_sequence_001.o (symbol from plugin)
test_println                                      /tmp/ccxHBcHG.ltrans2.ltrans.o
                                                  build/obj/ch_test.o (symbol from plugin)
                                                  /tmp/ccxHBcHG.ltrans4.ltrans.o
                                                  /tmp/ccxHBcHG.ltrans0.ltrans.o
                                                  build/obj/rt_test_sequence_010.o (symbol from plugin)
                                                  build/obj/rt_test_sequence_001.o (symbol from plugin)
test_printn                                       /tmp/ccxHBcHG.ltrans2.ltrans.o
                                                  build/obj/ch_test.o (symbol from plugin)
                                                  /tmp/ccxHBcHG.ltrans4.ltrans.o
                                                  /tmp/ccxHBcHG.ltrans0.ltrans.o
                                                  build/obj/rt_test_sequence_010.o (symbol from plugin)
                                                  build/obj/rt_test_sequence_001.o (symbol from plugin)
test_step                                         /tmp/ccxHBcHG.ltrans0.ltrans.o
                                                  build/obj/ch_test.o (symbol from plugin)
                                                  /tmp/ccxHBcHG.ltrans9.ltrans.o
                                                  /tmp/ccxHBcHG.ltrans6.ltrans.o
                                                  /tmp/ccxHBcHG.ltrans5.ltrans.o
                                                  /tmp/ccxHBcHG.ltrans4.ltrans.o
                                                  /tmp/ccxHBcHG.ltrans3.ltrans.o
                                                  /tmp/ccxHBcHG.ltrans2.ltrans.o
                                                  /tmp/ccxHBcHG.ltrans1.ltrans.o
                                                  build/obj/oslib_test_sequence_004.o (symbol from plugin)
                                                  build/obj/oslib_test_sequence_003.o (symbol from plugin)
                                                  build/obj/oslib_test_sequence_002.o (symbol from plugin)
                                                  build/obj/oslib_test_sequence_001.o (symbol from plugin)
                                                  build/obj/rt_test_sequence_010.o (symbol from plugin)
                                                  build/obj/rt_test_sequence_009.o (symbol from plugin)
                                                  build/obj/rt_test_sequence_008.o (symbol from plugin)
                                                  build/obj/rt_test_sequence_007.o (symbol from plugin)
                                                  build/obj/rt_test_sequence_006.o (symbol from plugin)
                                                  build/obj/rt_test_sequence_005.o (symbol from plugin)
                                                  build/obj/rt_test_sequence_004.o (symbol from plugin)
                                                  build/obj/rt_test_sequence_003.o (symbol from plugin)
                                                  build/obj/rt_test_sequence_002.o (symbol from plugin)
                                                  build/obj/rt_test_sequence_001.o (symbol from plugin)
test_terminate_threads                            /tmp/ccxHBcHG.ltrans2.ltrans.o
                                                  build/obj/rt_test_root.o (symbol from plugin)
                                                  /tmp/ccxHBcHG.ltrans4.ltrans.o
                                                  build/obj/rt_test_sequence_010.o (symbol from plugin)
test_tokens_buffer.lto_priv.210                   /tmp/ccxHBcHG.ltrans0.ltrans.o
                                                  /tmp/ccxHBcHG.ltrans2.ltrans.o
test_tokp.lto_priv.209                            /tmp/ccxHBcHG.ltrans0.ltrans.o
                                                  /tmp/ccxHBcHG.ltrans2.ltrans.o
test_wait_threads                                 /tmp/ccxHBcHG.ltrans2.ltrans.o
                                                  build/obj/rt_test_root.o (symbol from plugin)
                                                  /tmp/ccxHBcHG.ltrans9.ltrans.o
                                                  /tmp/ccxHBcHG.ltrans5.ltrans.o
                                                  /tmp/ccxHBcHG.ltrans4.ltrans.o
                                                  /tmp/ccxHBcHG.ltrans1.ltrans.o
                                                  build/obj/rt_test_sequence_010.o (symbol from plugin)
                                                  build/obj/rt_test_sequence_009.o (symbol from plugin)
                                                  build/obj/rt_test_sequence_008.o (symbol from plugin)
                                                  build/obj/rt_test_sequence_007.o (symbol from plugin)
                                                  build/obj/rt_test_sequence_006.o (symbol from plugin)
                                                  build/obj/rt_test_sequence_005.o (symbol from plugin)
                                                  build/obj/rt_test_sequence_004.o (symbol from plugin)
                                                  build/obj/rt_test_sequence_003.o (symbol from plugin)
test_wait_tick                                    /tmp/ccxHBcHG.ltrans2.ltrans.o
                                                  build/obj/rt_test_root.o (symbol from plugin)
                                                  /tmp/ccxHBcHG.ltrans5.ltrans.o
                                                  /tmp/ccxHBcHG.ltrans4.ltrans.o
                                                  /tmp/ccxHBcHG.ltrans1.ltrans.o
                                                  build/obj/rt_test_sequence_010.o (symbol from plugin)
                                                  build/obj/rt_test_sequence_008.o (symbol from plugin)
                                                  build/obj/rt_test_sequence_005.o (symbol from plugin)
thread.lto_priv.200                               /tmp/ccxHBcHG.ltrans9.ltrans.o
                                                  /tmp/ccxHBcHG.ltrans1.ltrans.o
thread6.lto_priv.196                              /tmp/ccxHBcHG.ltrans5.ltrans.o
                                                  /tmp/ccxHBcHG.ltrans1.ltrans.o
thread8.lto_priv.195                              /tmp/ccxHBcHG.ltrans5.ltrans.o
                                                  /tmp/ccxHBcHG.ltrans1.ltrans.o
thread9.lto_priv.197                              /tmp/ccxHBcHG.ltrans5.ltrans.o
                                                  /tmp/ccxHBcHG.ltrans1.ltrans.o
threads                                           /tmp/ccxHBcHG.ltrans4.ltrans.o
                                                  build/obj/rt_test_root.o (symbol from plugin)
                                                  /tmp/ccxHBcHG.ltrans9.ltrans.o
                                                  /tmp/ccxHBcHG.ltrans5.ltrans.o
                                                  /tmp/ccxHBcHG.ltrans2.ltrans.o
                                                  /tmp/ccxHBcHG.ltrans1.ltrans.o
                                                  build/obj/rt_test_sequence_010.o (symbol from plugin)
                                                  build/obj/rt_test_sequence_009.o (symbol from plugin)
                                                  build/obj/rt_test_sequence_008.o (symbol from plugin)
                                                  build/obj/rt_test_sequence_007.o (symbol from plugin)
                                                  build/obj/rt_test_sequence_006.o (symbol from plugin)
                                                  build/obj/rt_test_sequence_005.o (symbol from plugin)
                                                  build/obj/rt_test_sequence_004.o (symbol from plugin)
                                                  build/obj/rt_test_sequence_003.o (symbol from plugin)
wa                                                /tmp/ccxHBcHG.ltrans4.ltrans.o
                                                  build/obj/rt_test_root.o (symbol from plugin)
                                                  build/obj/rt_test_sequence_010.o (symbol from plugin)
                                                  build/obj/rt_test_sequence_009.o (symbol from plugin)
                                                  build/obj/rt_test_sequence_008.o (symbol from plugin)
                                                  build/obj/rt_test_sequence_007.o (symbol from plugin)
                                                  build/obj/rt_test_sequence_006.o (symbol from plugin)
                                                  build/obj/rt_test_sequence_005.o (symbol from plugin)
                                                  build/obj/rt_test_sequence_004.o (symbol from plugin)
                                                  build/obj/rt_test_sequence_003.o (symbol from plugin)
wakeup.lto_priv.204                               /tmp/ccxHBcHG.ltrans8.ltrans.o
